ccopy_reg
_reconstructor
p1
(cnltk.classify.naivebayes
NaiveBayesClassifier
p2
c__builtin__
object
p3
NtRp4
(dp5
S'_labels'
p6
(lp7
S'neg'
p8
aS'pos'
p9
asS'_feature_probdist'
p10
(dp11
sS'_label_probdist'
p12
g1
(cnltk.probability
ELEProbDist
p13
g3
NtRp14
(dp15
S'_gamma'
p16
F0.5
sS'_N'
p17
I12251
sS'_freqdist'
p18
g1
(cnltk.probability
FreqDist
p19
c__builtin__
dict
p20
(dp21
g8
I6195
sg9
I6056
stRp22
(dp23
g17
I12251
sS'_max_cache'
p24
NsS'_item_cache'
p25
(lp26
(g8
I6195
tp27
a(g9
I6056
tp28
asS'_Nr_cache'
p29
NsbsS'_bins'
p30
I2
sS'_divisor'
p31
F12252
sbsb.