(lp1
(lp2
(dp3
aS'pos'
p4
aa(lp5
(dp6
ag4
aa(lp7
(dp8
ag4
aa(lp9
(dp10
ag4
aa(lp11
(dp12
ag4
aa(lp13
(dp14
ag4
aa(lp15
(dp16
ag4
aa(lp17
(dp18
ag4
aa(lp19
(dp20
ag4
aa(lp21
(dp22
ag4
aa(lp23
(dp24
ag4
aa(lp25
(dp26
ag4
aa(lp27
(dp28
ag4
aa(lp29
(dp30
ag4
aa(lp31
(dp32
ag4
aa(lp33
(dp34
ag4
aa(lp35
(dp36
ag4
aa(lp37
(dp38
ag4
aa(lp39
(dp40
ag4
aa(lp41
(dp42
ag4
aa(lp43
(dp44
ag4
aa(lp45
(dp46
ag4
aa(lp47
(dp48
ag4
aa(lp49
(dp50
ag4
aa(lp51
(dp52
ag4
aa(lp53
(dp54
ag4
aa(lp55
(dp56
ag4
aa(lp57
(dp58
ag4
aa(lp59
(dp60
ag4
aa(lp61
(dp62
ag4
aa(lp63
(dp64
ag4
aa(lp65
(dp66
ag4
aa(lp67
(dp68
ag4
aa(lp69
(dp70
ag4
aa(lp71
(dp72
ag4
aa(lp73
(dp74
ag4
aa(lp75
(dp76
ag4
aa(lp77
(dp78
ag4
aa(lp79
(dp80
ag4
aa(lp81
(dp82
ag4
aa(lp83
(dp84
ag4
aa(lp85
(dp86
ag4
aa(lp87
(dp88
ag4
aa(lp89
(dp90
ag4
aa(lp91
(dp92
ag4
aa(lp93
(dp94
ag4
aa(lp95
(dp96
ag4
aa(lp97
(dp98
ag4
aa(lp99
(dp100
ag4
aa(lp101
(dp102
ag4
aa(lp103
(dp104
ag4
aa(lp105
(dp106
ag4
aa(lp107
(dp108
ag4
aa(lp109
(dp110
ag4
aa(lp111
(dp112
ag4
aa(lp113
(dp114
ag4
aa(lp115
(dp116
ag4
aa(lp117
(dp118
ag4
aa(lp119
(dp120
ag4
aa(lp121
(dp122
ag4
aa(lp123
(dp124
ag4
aa(lp125
(dp126
ag4
aa(lp127
(dp128
ag4
aa(lp129
(dp130
ag4
aa(lp131
(dp132
ag4
aa(lp133
(dp134
ag4
aa(lp135
(dp136
ag4
aa(lp137
(dp138
ag4
aa(lp139
(dp140
ag4
aa(lp141
(dp142
ag4
aa(lp143
(dp144
ag4
aa(lp145
(dp146
ag4
aa(lp147
(dp148
ag4
aa(lp149
(dp150
ag4
aa(lp151
(dp152
ag4
aa(lp153
(dp154
ag4
aa(lp155
(dp156
ag4
aa(lp157
(dp158
ag4
aa(lp159
(dp160
ag4
aa(lp161
(dp162
ag4
aa(lp163
(dp164
ag4
aa(lp165
(dp166
ag4
aa(lp167
(dp168
ag4
aa(lp169
(dp170
ag4
aa(lp171
(dp172
ag4
aa(lp173
(dp174
ag4
aa(lp175
(dp176
ag4
aa(lp177
(dp178
ag4
aa(lp179
(dp180
ag4
aa(lp181
(dp182
ag4
aa(lp183
(dp184
ag4
aa(lp185
(dp186
ag4
aa(lp187
(dp188
ag4
aa(lp189
(dp190
ag4
aa(lp191
(dp192
ag4
aa(lp193
(dp194
ag4
aa(lp195
(dp196
ag4
aa(lp197
(dp198
ag4
aa(lp199
(dp200
ag4
aa(lp201
(dp202
ag4
aa(lp203
(dp204
ag4
aa(lp205
(dp206
ag4
aa(lp207
(dp208
ag4
aa(lp209
(dp210
ag4
aa(lp211
(dp212
ag4
aa(lp213
(dp214
ag4
aa(lp215
(dp216
ag4
aa(lp217
(dp218
ag4
aa(lp219
(dp220
ag4
aa(lp221
(dp222
ag4
aa(lp223
(dp224
ag4
aa(lp225
(dp226
ag4
aa(lp227
(dp228
ag4
aa(lp229
(dp230
ag4
aa(lp231
(dp232
ag4
aa(lp233
(dp234
ag4
aa(lp235
(dp236
ag4
aa(lp237
(dp238
ag4
aa(lp239
(dp240
ag4
aa(lp241
(dp242
ag4
aa(lp243
(dp244
ag4
aa(lp245
(dp246
ag4
aa(lp247
(dp248
ag4
aa(lp249
(dp250
ag4
aa(lp251
(dp252
ag4
aa(lp253
(dp254
ag4
aa(lp255
(dp256
ag4
aa(lp257
(dp258
ag4
aa(lp259
(dp260
ag4
aa(lp261
(dp262
ag4
aa(lp263
(dp264
ag4
aa(lp265
(dp266
ag4
aa(lp267
(dp268
ag4
aa(lp269
(dp270
ag4
aa(lp271
(dp272
ag4
aa(lp273
(dp274
ag4
aa(lp275
(dp276
ag4
aa(lp277
(dp278
ag4
aa(lp279
(dp280
ag4
aa(lp281
(dp282
ag4
aa(lp283
(dp284
ag4
aa(lp285
(dp286
ag4
aa(lp287
(dp288
ag4
aa(lp289
(dp290
ag4
aa(lp291
(dp292
ag4
aa(lp293
(dp294
ag4
aa(lp295
(dp296
ag4
aa(lp297
(dp298
ag4
aa(lp299
(dp300
ag4
aa(lp301
(dp302
ag4
aa(lp303
(dp304
ag4
aa(lp305
(dp306
ag4
aa(lp307
(dp308
ag4
aa(lp309
(dp310
ag4
aa(lp311
(dp312
ag4
aa(lp313
(dp314
ag4
aa(lp315
(dp316
ag4
aa(lp317
(dp318
ag4
aa(lp319
(dp320
ag4
aa(lp321
(dp322
ag4
aa(lp323
(dp324
ag4
aa(lp325
(dp326
ag4
aa(lp327
(dp328
ag4
aa(lp329
(dp330
ag4
aa(lp331
(dp332
ag4
aa(lp333
(dp334
ag4
aa(lp335
(dp336
ag4
aa(lp337
(dp338
ag4
aa(lp339
(dp340
ag4
aa(lp341
(dp342
ag4
aa(lp343
(dp344
ag4
aa(lp345
(dp346
ag4
aa(lp347
(dp348
ag4
aa(lp349
(dp350
ag4
aa(lp351
(dp352
ag4
aa(lp353
(dp354
ag4
aa(lp355
(dp356
ag4
aa(lp357
(dp358
ag4
aa(lp359
(dp360
ag4
aa(lp361
(dp362
ag4
aa(lp363
(dp364
ag4
aa(lp365
(dp366
ag4
aa(lp367
(dp368
ag4
aa(lp369
(dp370
ag4
aa(lp371
(dp372
ag4
aa(lp373
(dp374
ag4
aa(lp375
(dp376
ag4
aa(lp377
(dp378
ag4
aa(lp379
(dp380
ag4
aa(lp381
(dp382
ag4
aa(lp383
(dp384
ag4
aa(lp385
(dp386
ag4
aa(lp387
(dp388
ag4
aa(lp389
(dp390
ag4
aa(lp391
(dp392
ag4
aa(lp393
(dp394
ag4
aa(lp395
(dp396
ag4
aa(lp397
(dp398
ag4
aa(lp399
(dp400
ag4
aa(lp401
(dp402
ag4
aa(lp403
(dp404
ag4
aa(lp405
(dp406
ag4
aa(lp407
(dp408
ag4
aa(lp409
(dp410
ag4
aa(lp411
(dp412
ag4
aa(lp413
(dp414
ag4
aa(lp415
(dp416
ag4
aa(lp417
(dp418
ag4
aa(lp419
(dp420
ag4
aa(lp421
(dp422
ag4
aa(lp423
(dp424
ag4
aa(lp425
(dp426
ag4
aa(lp427
(dp428
ag4
aa(lp429
(dp430
ag4
aa(lp431
(dp432
ag4
aa(lp433
(dp434
ag4
aa(lp435
(dp436
ag4
aa(lp437
(dp438
ag4
aa(lp439
(dp440
ag4
aa(lp441
(dp442
ag4
aa(lp443
(dp444
ag4
aa(lp445
(dp446
ag4
aa(lp447
(dp448
ag4
aa(lp449
(dp450
ag4
aa(lp451
(dp452
ag4
aa(lp453
(dp454
ag4
aa(lp455
(dp456
ag4
aa(lp457
(dp458
ag4
aa(lp459
(dp460
ag4
aa(lp461
(dp462
ag4
aa(lp463
(dp464
ag4
aa(lp465
(dp466
ag4
aa(lp467
(dp468
ag4
aa(lp469
(dp470
ag4
aa(lp471
(dp472
ag4
aa(lp473
(dp474
ag4
aa(lp475
(dp476
ag4
aa(lp477
(dp478
ag4
aa(lp479
(dp480
ag4
aa(lp481
(dp482
ag4
aa(lp483
(dp484
ag4
aa(lp485
(dp486
ag4
aa(lp487
(dp488
ag4
aa(lp489
(dp490
ag4
aa(lp491
(dp492
ag4
aa(lp493
(dp494
ag4
aa(lp495
(dp496
ag4
aa(lp497
(dp498
ag4
aa(lp499
(dp500
ag4
aa(lp501
(dp502
ag4
aa(lp503
(dp504
ag4
aa(lp505
(dp506
ag4
aa(lp507
(dp508
ag4
aa(lp509
(dp510
ag4
aa(lp511
(dp512
ag4
aa(lp513
(dp514
ag4
aa(lp515
(dp516
ag4
aa(lp517
(dp518
ag4
aa(lp519
(dp520
ag4
aa(lp521
(dp522
ag4
aa(lp523
(dp524
ag4
aa(lp525
(dp526
ag4
aa(lp527
(dp528
ag4
aa(lp529
(dp530
ag4
aa(lp531
(dp532
ag4
aa(lp533
(dp534
ag4
aa(lp535
(dp536
ag4
aa(lp537
(dp538
ag4
aa(lp539
(dp540
ag4
aa(lp541
(dp542
ag4
aa(lp543
(dp544
ag4
aa(lp545
(dp546
ag4
aa(lp547
(dp548
ag4
aa(lp549
(dp550
ag4
aa(lp551
(dp552
ag4
aa(lp553
(dp554
ag4
aa(lp555
(dp556
ag4
aa(lp557
(dp558
ag4
aa(lp559
(dp560
ag4
aa(lp561
(dp562
ag4
aa(lp563
(dp564
ag4
aa(lp565
(dp566
ag4
aa(lp567
(dp568
ag4
aa(lp569
(dp570
ag4
aa(lp571
(dp572
ag4
aa(lp573
(dp574
ag4
aa(lp575
(dp576
ag4
aa(lp577
(dp578
ag4
aa(lp579
(dp580
ag4
aa(lp581
(dp582
ag4
aa(lp583
(dp584
ag4
aa(lp585
(dp586
ag4
aa(lp587
(dp588
ag4
aa(lp589
(dp590
ag4
aa(lp591
(dp592
ag4
aa(lp593
(dp594
ag4
aa(lp595
(dp596
ag4
aa(lp597
(dp598
ag4
aa(lp599
(dp600
ag4
aa(lp601
(dp602
ag4
aa(lp603
(dp604
ag4
aa(lp605
(dp606
ag4
aa(lp607
(dp608
ag4
aa(lp609
(dp610
ag4
aa(lp611
(dp612
ag4
aa(lp613
(dp614
ag4
aa(lp615
(dp616
ag4
aa(lp617
(dp618
ag4
aa(lp619
(dp620
ag4
aa(lp621
(dp622
ag4
aa(lp623
(dp624
ag4
aa(lp625
(dp626
ag4
aa(lp627
(dp628
ag4
aa(lp629
(dp630
ag4
aa(lp631
(dp632
ag4
aa(lp633
(dp634
ag4
aa(lp635
(dp636
ag4
aa(lp637
(dp638
ag4
aa(lp639
(dp640
ag4
aa(lp641
(dp642
ag4
aa(lp643
(dp644
ag4
aa(lp645
(dp646
ag4
aa(lp647
(dp648
ag4
aa(lp649
(dp650
ag4
aa(lp651
(dp652
ag4
aa(lp653
(dp654
ag4
aa(lp655
(dp656
ag4
aa(lp657
(dp658
ag4
aa(lp659
(dp660
ag4
aa(lp661
(dp662
ag4
aa(lp663
(dp664
ag4
aa(lp665
(dp666
ag4
aa(lp667
(dp668
ag4
aa(lp669
(dp670
ag4
aa(lp671
(dp672
ag4
aa(lp673
(dp674
ag4
aa(lp675
(dp676
ag4
aa(lp677
(dp678
ag4
aa(lp679
(dp680
ag4
aa(lp681
(dp682
ag4
aa(lp683
(dp684
ag4
aa(lp685
(dp686
ag4
aa(lp687
(dp688
ag4
aa(lp689
(dp690
ag4
aa(lp691
(dp692
ag4
aa(lp693
(dp694
ag4
aa(lp695
(dp696
ag4
aa(lp697
(dp698
ag4
aa(lp699
(dp700
ag4
aa(lp701
(dp702
ag4
aa(lp703
(dp704
ag4
aa(lp705
(dp706
ag4
aa(lp707
(dp708
ag4
aa(lp709
(dp710
ag4
aa(lp711
(dp712
ag4
aa(lp713
(dp714
ag4
aa(lp715
(dp716
ag4
aa(lp717
(dp718
ag4
aa(lp719
(dp720
ag4
aa(lp721
(dp722
ag4
aa(lp723
(dp724
ag4
aa(lp725
(dp726
ag4
aa(lp727
(dp728
ag4
aa(lp729
(dp730
ag4
aa(lp731
(dp732
ag4
aa(lp733
(dp734
ag4
aa(lp735
(dp736
ag4
aa(lp737
(dp738
ag4
aa(lp739
(dp740
ag4
aa(lp741
(dp742
ag4
aa(lp743
(dp744
ag4
aa(lp745
(dp746
ag4
aa(lp747
(dp748
ag4
aa(lp749
(dp750
ag4
aa(lp751
(dp752
ag4
aa(lp753
(dp754
ag4
aa(lp755
(dp756
ag4
aa(lp757
(dp758
ag4
aa(lp759
(dp760
ag4
aa(lp761
(dp762
ag4
aa(lp763
(dp764
ag4
aa(lp765
(dp766
ag4
aa(lp767
(dp768
ag4
aa(lp769
(dp770
ag4
aa(lp771
(dp772
ag4
aa(lp773
(dp774
ag4
aa(lp775
(dp776
ag4
aa(lp777
(dp778
ag4
aa(lp779
(dp780
ag4
aa(lp781
(dp782
ag4
aa(lp783
(dp784
ag4
aa(lp785
(dp786
ag4
aa(lp787
(dp788
ag4
aa(lp789
(dp790
ag4
aa(lp791
(dp792
ag4
aa(lp793
(dp794
ag4
aa(lp795
(dp796
ag4
aa(lp797
(dp798
ag4
aa(lp799
(dp800
ag4
aa(lp801
(dp802
ag4
aa(lp803
(dp804
ag4
aa(lp805
(dp806
ag4
aa(lp807
(dp808
ag4
aa(lp809
(dp810
ag4
aa(lp811
(dp812
ag4
aa(lp813
(dp814
ag4
aa(lp815
(dp816
ag4
aa(lp817
(dp818
ag4
aa(lp819
(dp820
ag4
aa(lp821
(dp822
ag4
aa(lp823
(dp824
ag4
aa(lp825
(dp826
ag4
aa(lp827
(dp828
ag4
aa(lp829
(dp830
ag4
aa(lp831
(dp832
ag4
aa(lp833
(dp834
ag4
aa(lp835
(dp836
ag4
aa(lp837
(dp838
ag4
aa(lp839
(dp840
ag4
aa(lp841
(dp842
ag4
aa(lp843
(dp844
ag4
aa(lp845
(dp846
ag4
aa(lp847
(dp848
ag4
aa(lp849
(dp850
ag4
aa(lp851
(dp852
ag4
aa(lp853
(dp854
ag4
aa(lp855
(dp856
ag4
aa(lp857
(dp858
ag4
aa(lp859
(dp860
ag4
aa(lp861
(dp862
ag4
aa(lp863
(dp864
ag4
aa(lp865
(dp866
ag4
aa(lp867
(dp868
ag4
aa(lp869
(dp870
ag4
aa(lp871
(dp872
ag4
aa(lp873
(dp874
ag4
aa(lp875
(dp876
ag4
aa(lp877
(dp878
ag4
aa(lp879
(dp880
ag4
aa(lp881
(dp882
ag4
aa(lp883
(dp884
ag4
aa(lp885
(dp886
ag4
aa(lp887
(dp888
ag4
aa(lp889
(dp890
ag4
aa(lp891
(dp892
ag4
aa(lp893
(dp894
ag4
aa(lp895
(dp896
ag4
aa(lp897
(dp898
ag4
aa(lp899
(dp900
ag4
aa(lp901
(dp902
ag4
aa(lp903
(dp904
ag4
aa(lp905
(dp906
ag4
aa(lp907
(dp908
ag4
aa(lp909
(dp910
ag4
aa(lp911
(dp912
ag4
aa(lp913
(dp914
ag4
aa(lp915
(dp916
ag4
aa(lp917
(dp918
ag4
aa(lp919
(dp920
ag4
aa(lp921
(dp922
ag4
aa(lp923
(dp924
ag4
aa(lp925
(dp926
ag4
aa(lp927
(dp928
ag4
aa(lp929
(dp930
ag4
aa(lp931
(dp932
ag4
aa(lp933
(dp934
ag4
aa(lp935
(dp936
ag4
aa(lp937
(dp938
ag4
aa(lp939
(dp940
ag4
aa(lp941
(dp942
ag4
aa(lp943
(dp944
ag4
aa(lp945
(dp946
ag4
aa(lp947
(dp948
ag4
aa(lp949
(dp950
ag4
aa(lp951
(dp952
ag4
aa(lp953
(dp954
ag4
aa(lp955
(dp956
ag4
aa(lp957
(dp958
ag4
aa(lp959
(dp960
ag4
aa(lp961
(dp962
ag4
aa(lp963
(dp964
ag4
aa(lp965
(dp966
ag4
aa(lp967
(dp968
ag4
aa(lp969
(dp970
ag4
aa(lp971
(dp972
ag4
aa(lp973
(dp974
ag4
aa(lp975
(dp976
ag4
aa(lp977
(dp978
ag4
aa(lp979
(dp980
ag4
aa(lp981
(dp982
ag4
aa(lp983
(dp984
ag4
aa(lp985
(dp986
ag4
aa(lp987
(dp988
ag4
aa(lp989
(dp990
ag4
aa(lp991
(dp992
ag4
aa(lp993
(dp994
ag4
aa(lp995
(dp996
ag4
aa(lp997
(dp998
ag4
aa(lp999
(dp1000
ag4
aa(lp1001
(dp1002
ag4
aa(lp1003
(dp1004
ag4
aa(lp1005
(dp1006
ag4
aa(lp1007
(dp1008
ag4
aa(lp1009
(dp1010
ag4
aa(lp1011
(dp1012
ag4
aa(lp1013
(dp1014
ag4
aa(lp1015
(dp1016
ag4
aa(lp1017
(dp1018
ag4
aa(lp1019
(dp1020
ag4
aa(lp1021
(dp1022
ag4
aa(lp1023
(dp1024
ag4
aa(lp1025
(dp1026
ag4
aa(lp1027
(dp1028
ag4
aa(lp1029
(dp1030
ag4
aa(lp1031
(dp1032
ag4
aa(lp1033
(dp1034
ag4
aa(lp1035
(dp1036
ag4
aa(lp1037
(dp1038
ag4
aa(lp1039
(dp1040
ag4
aa(lp1041
(dp1042
ag4
aa(lp1043
(dp1044
ag4
aa(lp1045
(dp1046
ag4
aa(lp1047
(dp1048
ag4
aa(lp1049
(dp1050
ag4
aa(lp1051
(dp1052
ag4
aa(lp1053
(dp1054
ag4
aa(lp1055
(dp1056
ag4
aa(lp1057
(dp1058
ag4
aa(lp1059
(dp1060
ag4
aa(lp1061
(dp1062
ag4
aa(lp1063
(dp1064
ag4
aa(lp1065
(dp1066
ag4
aa(lp1067
(dp1068
ag4
aa(lp1069
(dp1070
ag4
aa(lp1071
(dp1072
ag4
aa(lp1073
(dp1074
ag4
aa(lp1075
(dp1076
ag4
aa(lp1077
(dp1078
ag4
aa(lp1079
(dp1080
ag4
aa(lp1081
(dp1082
ag4
aa(lp1083
(dp1084
ag4
aa(lp1085
(dp1086
ag4
aa(lp1087
(dp1088
ag4
aa(lp1089
(dp1090
ag4
aa(lp1091
(dp1092
ag4
aa(lp1093
(dp1094
ag4
aa(lp1095
(dp1096
ag4
aa(lp1097
(dp1098
ag4
aa(lp1099
(dp1100
ag4
aa(lp1101
(dp1102
ag4
aa(lp1103
(dp1104
ag4
aa(lp1105
(dp1106
ag4
aa(lp1107
(dp1108
ag4
aa(lp1109
(dp1110
ag4
aa(lp1111
(dp1112
ag4
aa(lp1113
(dp1114
ag4
aa(lp1115
(dp1116
ag4
aa(lp1117
(dp1118
ag4
aa(lp1119
(dp1120
ag4
aa(lp1121
(dp1122
ag4
aa(lp1123
(dp1124
ag4
aa(lp1125
(dp1126
ag4
aa(lp1127
(dp1128
ag4
aa(lp1129
(dp1130
ag4
aa(lp1131
(dp1132
ag4
aa(lp1133
(dp1134
ag4
aa(lp1135
(dp1136
ag4
aa(lp1137
(dp1138
ag4
aa(lp1139
(dp1140
ag4
aa(lp1141
(dp1142
ag4
aa(lp1143
(dp1144
ag4
aa(lp1145
(dp1146
ag4
aa(lp1147
(dp1148
ag4
aa(lp1149
(dp1150
ag4
aa(lp1151
(dp1152
ag4
aa(lp1153
(dp1154
ag4
aa(lp1155
(dp1156
ag4
aa(lp1157
(dp1158
ag4
aa(lp1159
(dp1160
ag4
aa(lp1161
(dp1162
ag4
aa(lp1163
(dp1164
ag4
aa(lp1165
(dp1166
ag4
aa(lp1167
(dp1168
ag4
aa(lp1169
(dp1170
ag4
aa(lp1171
(dp1172
ag4
aa(lp1173
(dp1174
ag4
aa(lp1175
(dp1176
ag4
aa(lp1177
(dp1178
ag4
aa(lp1179
(dp1180
ag4
aa(lp1181
(dp1182
ag4
aa(lp1183
(dp1184
ag4
aa(lp1185
(dp1186
ag4
aa(lp1187
(dp1188
ag4
aa(lp1189
(dp1190
ag4
aa(lp1191
(dp1192
ag4
aa(lp1193
(dp1194
ag4
aa(lp1195
(dp1196
ag4
aa(lp1197
(dp1198
ag4
aa(lp1199
(dp1200
ag4
aa(lp1201
(dp1202
ag4
aa(lp1203
(dp1204
ag4
aa(lp1205
(dp1206
ag4
aa(lp1207
(dp1208
ag4
aa(lp1209
(dp1210
ag4
aa(lp1211
(dp1212
ag4
aa(lp1213
(dp1214
ag4
aa(lp1215
(dp1216
ag4
aa(lp1217
(dp1218
ag4
aa(lp1219
(dp1220
ag4
aa(lp1221
(dp1222
ag4
aa(lp1223
(dp1224
ag4
aa(lp1225
(dp1226
ag4
aa(lp1227
(dp1228
ag4
aa(lp1229
(dp1230
ag4
aa(lp1231
(dp1232
ag4
aa(lp1233
(dp1234
ag4
aa(lp1235
(dp1236
ag4
aa(lp1237
(dp1238
ag4
aa(lp1239
(dp1240
ag4
aa(lp1241
(dp1242
ag4
aa(lp1243
(dp1244
ag4
aa(lp1245
(dp1246
ag4
aa(lp1247
(dp1248
ag4
aa(lp1249
(dp1250
ag4
aa(lp1251
(dp1252
ag4
aa(lp1253
(dp1254
ag4
aa(lp1255
(dp1256
ag4
aa(lp1257
(dp1258
ag4
aa(lp1259
(dp1260
ag4
aa(lp1261
(dp1262
ag4
aa(lp1263
(dp1264
ag4
aa(lp1265
(dp1266
ag4
aa(lp1267
(dp1268
ag4
aa(lp1269
(dp1270
ag4
aa(lp1271
(dp1272
ag4
aa(lp1273
(dp1274
ag4
aa(lp1275
(dp1276
ag4
aa(lp1277
(dp1278
ag4
aa(lp1279
(dp1280
ag4
aa(lp1281
(dp1282
ag4
aa(lp1283
(dp1284
ag4
aa(lp1285
(dp1286
ag4
aa(lp1287
(dp1288
ag4
aa(lp1289
(dp1290
ag4
aa(lp1291
(dp1292
ag4
aa(lp1293
(dp1294
ag4
aa(lp1295
(dp1296
ag4
aa(lp1297
(dp1298
ag4
aa(lp1299
(dp1300
ag4
aa(lp1301
(dp1302
ag4
aa(lp1303
(dp1304
ag4
aa(lp1305
(dp1306
ag4
aa(lp1307
(dp1308
ag4
aa(lp1309
(dp1310
ag4
aa(lp1311
(dp1312
ag4
aa(lp1313
(dp1314
ag4
aa(lp1315
(dp1316
ag4
aa(lp1317
(dp1318
ag4
aa(lp1319
(dp1320
ag4
aa(lp1321
(dp1322
ag4
aa(lp1323
(dp1324
ag4
aa(lp1325
(dp1326
ag4
aa(lp1327
(dp1328
ag4
aa(lp1329
(dp1330
ag4
aa(lp1331
(dp1332
ag4
aa(lp1333
(dp1334
ag4
aa(lp1335
(dp1336
ag4
aa(lp1337
(dp1338
ag4
aa(lp1339
(dp1340
ag4
aa(lp1341
(dp1342
ag4
aa(lp1343
(dp1344
ag4
aa(lp1345
(dp1346
ag4
aa(lp1347
(dp1348
ag4
aa(lp1349
(dp1350
ag4
aa(lp1351
(dp1352
ag4
aa(lp1353
(dp1354
ag4
aa(lp1355
(dp1356
ag4
aa(lp1357
(dp1358
ag4
aa(lp1359
(dp1360
ag4
aa(lp1361
(dp1362
ag4
aa(lp1363
(dp1364
ag4
aa(lp1365
(dp1366
ag4
aa(lp1367
(dp1368
ag4
aa(lp1369
(dp1370
ag4
aa(lp1371
(dp1372
ag4
aa(lp1373
(dp1374
ag4
aa(lp1375
(dp1376
ag4
aa(lp1377
(dp1378
ag4
aa(lp1379
(dp1380
ag4
aa(lp1381
(dp1382
ag4
aa(lp1383
(dp1384
ag4
aa(lp1385
(dp1386
ag4
aa(lp1387
(dp1388
ag4
aa(lp1389
(dp1390
ag4
aa(lp1391
(dp1392
ag4
aa(lp1393
(dp1394
ag4
aa(lp1395
(dp1396
ag4
aa(lp1397
(dp1398
ag4
aa(lp1399
(dp1400
ag4
aa(lp1401
(dp1402
ag4
aa(lp1403
(dp1404
ag4
aa(lp1405
(dp1406
ag4
aa(lp1407
(dp1408
ag4
aa(lp1409
(dp1410
ag4
aa(lp1411
(dp1412
ag4
aa(lp1413
(dp1414
ag4
aa(lp1415
(dp1416
ag4
aa(lp1417
(dp1418
ag4
aa(lp1419
(dp1420
ag4
aa(lp1421
(dp1422
ag4
aa(lp1423
(dp1424
ag4
aa(lp1425
(dp1426
ag4
aa(lp1427
(dp1428
ag4
aa(lp1429
(dp1430
ag4
aa(lp1431
(dp1432
ag4
aa(lp1433
(dp1434
ag4
aa(lp1435
(dp1436
ag4
aa(lp1437
(dp1438
ag4
aa(lp1439
(dp1440
ag4
aa(lp1441
(dp1442
ag4
aa(lp1443
(dp1444
ag4
aa(lp1445
(dp1446
ag4
aa(lp1447
(dp1448
ag4
aa(lp1449
(dp1450
ag4
aa(lp1451
(dp1452
ag4
aa(lp1453
(dp1454
ag4
aa(lp1455
(dp1456
ag4
aa(lp1457
(dp1458
ag4
aa(lp1459
(dp1460
ag4
aa(lp1461
(dp1462
ag4
aa(lp1463
(dp1464
ag4
aa(lp1465
(dp1466
ag4
aa(lp1467
(dp1468
ag4
aa(lp1469
(dp1470
ag4
aa(lp1471
(dp1472
ag4
aa(lp1473
(dp1474
ag4
aa(lp1475
(dp1476
ag4
aa(lp1477
(dp1478
ag4
aa(lp1479
(dp1480
ag4
aa(lp1481
(dp1482
ag4
aa(lp1483
(dp1484
ag4
aa(lp1485
(dp1486
ag4
aa(lp1487
(dp1488
ag4
aa(lp1489
(dp1490
ag4
aa(lp1491
(dp1492
ag4
aa(lp1493
(dp1494
ag4
aa(lp1495
(dp1496
ag4
aa(lp1497
(dp1498
ag4
aa(lp1499
(dp1500
ag4
aa(lp1501
(dp1502
ag4
aa(lp1503
(dp1504
ag4
aa(lp1505
(dp1506
ag4
aa(lp1507
(dp1508
ag4
aa(lp1509
(dp1510
ag4
aa(lp1511
(dp1512
ag4
aa(lp1513
(dp1514
ag4
aa(lp1515
(dp1516
ag4
aa(lp1517
(dp1518
ag4
aa(lp1519
(dp1520
ag4
aa(lp1521
(dp1522
ag4
aa(lp1523
(dp1524
ag4
aa(lp1525
(dp1526
ag4
aa(lp1527
(dp1528
ag4
aa(lp1529
(dp1530
ag4
aa(lp1531
(dp1532
ag4
aa(lp1533
(dp1534
ag4
aa(lp1535
(dp1536
ag4
aa(lp1537
(dp1538
ag4
aa(lp1539
(dp1540
ag4
aa(lp1541
(dp1542
ag4
aa(lp1543
(dp1544
ag4
aa(lp1545
(dp1546
ag4
aa(lp1547
(dp1548
ag4
aa(lp1549
(dp1550
ag4
aa(lp1551
(dp1552
ag4
aa(lp1553
(dp1554
ag4
aa(lp1555
(dp1556
ag4
aa(lp1557
(dp1558
ag4
aa(lp1559
(dp1560
ag4
aa(lp1561
(dp1562
ag4
aa(lp1563
(dp1564
ag4
aa(lp1565
(dp1566
ag4
aa(lp1567
(dp1568
ag4
aa(lp1569
(dp1570
ag4
aa(lp1571
(dp1572
ag4
aa(lp1573
(dp1574
ag4
aa(lp1575
(dp1576
ag4
aa(lp1577
(dp1578
ag4
aa(lp1579
(dp1580
ag4
aa(lp1581
(dp1582
ag4
aa(lp1583
(dp1584
ag4
aa(lp1585
(dp1586
ag4
aa(lp1587
(dp1588
ag4
aa(lp1589
(dp1590
ag4
aa(lp1591
(dp1592
ag4
aa(lp1593
(dp1594
ag4
aa(lp1595
(dp1596
ag4
aa(lp1597
(dp1598
ag4
aa(lp1599
(dp1600
ag4
aa(lp1601
(dp1602
ag4
aa(lp1603
(dp1604
ag4
aa(lp1605
(dp1606
ag4
aa(lp1607
(dp1608
ag4
aa(lp1609
(dp1610
ag4
aa(lp1611
(dp1612
ag4
aa(lp1613
(dp1614
ag4
aa(lp1615
(dp1616
ag4
aa(lp1617
(dp1618
ag4
aa(lp1619
(dp1620
ag4
aa(lp1621
(dp1622
ag4
aa(lp1623
(dp1624
ag4
aa(lp1625
(dp1626
ag4
aa(lp1627
(dp1628
ag4
aa(lp1629
(dp1630
ag4
aa(lp1631
(dp1632
ag4
aa(lp1633
(dp1634
ag4
aa(lp1635
(dp1636
ag4
aa(lp1637
(dp1638
ag4
aa(lp1639
(dp1640
ag4
aa(lp1641
(dp1642
ag4
aa(lp1643
(dp1644
ag4
aa(lp1645
(dp1646
ag4
aa(lp1647
(dp1648
ag4
aa(lp1649
(dp1650
ag4
aa(lp1651
(dp1652
ag4
aa(lp1653
(dp1654
ag4
aa(lp1655
(dp1656
ag4
aa(lp1657
(dp1658
ag4
aa(lp1659
(dp1660
ag4
aa(lp1661
(dp1662
ag4
aa(lp1663
(dp1664
ag4
aa(lp1665
(dp1666
ag4
aa(lp1667
(dp1668
ag4
aa(lp1669
(dp1670
ag4
aa(lp1671
(dp1672
ag4
aa(lp1673
(dp1674
ag4
aa(lp1675
(dp1676
ag4
aa(lp1677
(dp1678
ag4
aa(lp1679
(dp1680
ag4
aa(lp1681
(dp1682
ag4
aa(lp1683
(dp1684
ag4
aa(lp1685
(dp1686
ag4
aa(lp1687
(dp1688
ag4
aa(lp1689
(dp1690
ag4
aa(lp1691
(dp1692
ag4
aa(lp1693
(dp1694
ag4
aa(lp1695
(dp1696
ag4
aa(lp1697
(dp1698
ag4
aa(lp1699
(dp1700
ag4
aa(lp1701
(dp1702
ag4
aa(lp1703
(dp1704
ag4
aa(lp1705
(dp1706
ag4
aa(lp1707
(dp1708
ag4
aa(lp1709
(dp1710
ag4
aa(lp1711
(dp1712
ag4
aa(lp1713
(dp1714
ag4
aa(lp1715
(dp1716
ag4
aa(lp1717
(dp1718
ag4
aa(lp1719
(dp1720
ag4
aa(lp1721
(dp1722
ag4
aa(lp1723
(dp1724
ag4
aa(lp1725
(dp1726
ag4
aa(lp1727
(dp1728
ag4
aa(lp1729
(dp1730
ag4
aa(lp1731
(dp1732
ag4
aa(lp1733
(dp1734
ag4
aa(lp1735
(dp1736
ag4
aa(lp1737
(dp1738
ag4
aa(lp1739
(dp1740
ag4
aa(lp1741
(dp1742
ag4
aa(lp1743
(dp1744
ag4
aa(lp1745
(dp1746
ag4
aa(lp1747
(dp1748
ag4
aa(lp1749
(dp1750
ag4
aa(lp1751
(dp1752
ag4
aa(lp1753
(dp1754
ag4
aa(lp1755
(dp1756
ag4
aa(lp1757
(dp1758
ag4
aa(lp1759
(dp1760
ag4
aa(lp1761
(dp1762
ag4
aa(lp1763
(dp1764
ag4
aa(lp1765
(dp1766
ag4
aa(lp1767
(dp1768
ag4
aa(lp1769
(dp1770
ag4
aa(lp1771
(dp1772
ag4
aa(lp1773
(dp1774
ag4
aa(lp1775
(dp1776
ag4
aa(lp1777
(dp1778
ag4
aa(lp1779
(dp1780
ag4
aa(lp1781
(dp1782
ag4
aa(lp1783
(dp1784
ag4
aa(lp1785
(dp1786
ag4
aa(lp1787
(dp1788
ag4
aa(lp1789
(dp1790
ag4
aa(lp1791
(dp1792
ag4
aa(lp1793
(dp1794
ag4
aa(lp1795
(dp1796
ag4
aa(lp1797
(dp1798
ag4
aa(lp1799
(dp1800
ag4
aa(lp1801
(dp1802
ag4
aa(lp1803
(dp1804
ag4
aa(lp1805
(dp1806
ag4
aa(lp1807
(dp1808
ag4
aa(lp1809
(dp1810
ag4
aa(lp1811
(dp1812
ag4
aa(lp1813
(dp1814
ag4
aa(lp1815
(dp1816
ag4
aa(lp1817
(dp1818
ag4
aa(lp1819
(dp1820
ag4
aa(lp1821
(dp1822
ag4
aa(lp1823
(dp1824
ag4
aa(lp1825
(dp1826
ag4
aa(lp1827
(dp1828
ag4
aa(lp1829
(dp1830
ag4
aa(lp1831
(dp1832
ag4
aa(lp1833
(dp1834
ag4
aa(lp1835
(dp1836
ag4
aa(lp1837
(dp1838
ag4
aa(lp1839
(dp1840
ag4
aa(lp1841
(dp1842
ag4
aa(lp1843
(dp1844
ag4
aa(lp1845
(dp1846
ag4
aa(lp1847
(dp1848
ag4
aa(lp1849
(dp1850
ag4
aa(lp1851
(dp1852
ag4
aa(lp1853
(dp1854
ag4
aa(lp1855
(dp1856
ag4
aa(lp1857
(dp1858
ag4
aa(lp1859
(dp1860
ag4
aa(lp1861
(dp1862
ag4
aa(lp1863
(dp1864
ag4
aa(lp1865
(dp1866
ag4
aa(lp1867
(dp1868
ag4
aa(lp1869
(dp1870
ag4
aa(lp1871
(dp1872
ag4
aa(lp1873
(dp1874
ag4
aa(lp1875
(dp1876
ag4
aa(lp1877
(dp1878
ag4
aa(lp1879
(dp1880
ag4
aa(lp1881
(dp1882
ag4
aa(lp1883
(dp1884
ag4
aa(lp1885
(dp1886
ag4
aa(lp1887
(dp1888
ag4
aa(lp1889
(dp1890
ag4
aa(lp1891
(dp1892
ag4
aa(lp1893
(dp1894
ag4
aa(lp1895
(dp1896
ag4
aa(lp1897
(dp1898
ag4
aa(lp1899
(dp1900
ag4
aa(lp1901
(dp1902
ag4
aa(lp1903
(dp1904
ag4
aa(lp1905
(dp1906
ag4
aa(lp1907
(dp1908
ag4
aa(lp1909
(dp1910
ag4
aa(lp1911
(dp1912
ag4
aa(lp1913
(dp1914
ag4
aa(lp1915
(dp1916
ag4
aa(lp1917
(dp1918
ag4
aa(lp1919
(dp1920
ag4
aa(lp1921
(dp1922
ag4
aa(lp1923
(dp1924
ag4
aa(lp1925
(dp1926
ag4
aa(lp1927
(dp1928
ag4
aa(lp1929
(dp1930
ag4
aa(lp1931
(dp1932
ag4
aa(lp1933
(dp1934
ag4
aa(lp1935
(dp1936
ag4
aa(lp1937
(dp1938
ag4
aa(lp1939
(dp1940
ag4
aa(lp1941
(dp1942
ag4
aa(lp1943
(dp1944
ag4
aa(lp1945
(dp1946
ag4
aa(lp1947
(dp1948
ag4
aa(lp1949
(dp1950
ag4
aa(lp1951
(dp1952
ag4
aa(lp1953
(dp1954
ag4
aa(lp1955
(dp1956
ag4
aa(lp1957
(dp1958
ag4
aa(lp1959
(dp1960
ag4
aa(lp1961
(dp1962
ag4
aa(lp1963
(dp1964
ag4
aa(lp1965
(dp1966
ag4
aa(lp1967
(dp1968
ag4
aa(lp1969
(dp1970
ag4
aa(lp1971
(dp1972
ag4
aa(lp1973
(dp1974
ag4
aa(lp1975
(dp1976
ag4
aa(lp1977
(dp1978
ag4
aa(lp1979
(dp1980
ag4
aa(lp1981
(dp1982
ag4
aa(lp1983
(dp1984
ag4
aa(lp1985
(dp1986
ag4
aa(lp1987
(dp1988
ag4
aa(lp1989
(dp1990
ag4
aa(lp1991
(dp1992
ag4
aa(lp1993
(dp1994
ag4
aa(lp1995
(dp1996
ag4
aa(lp1997
(dp1998
ag4
aa(lp1999
(dp2000
ag4
aa(lp2001
(dp2002
ag4
aa(lp2003
(dp2004
ag4
aa(lp2005
(dp2006
ag4
aa(lp2007
(dp2008
ag4
aa(lp2009
(dp2010
ag4
aa(lp2011
(dp2012
ag4
aa(lp2013
(dp2014
ag4
aa(lp2015
(dp2016
ag4
aa(lp2017
(dp2018
ag4
aa(lp2019
(dp2020
ag4
aa(lp2021
(dp2022
ag4
aa(lp2023
(dp2024
ag4
aa(lp2025
(dp2026
ag4
aa(lp2027
(dp2028
ag4
aa(lp2029
(dp2030
ag4
aa(lp2031
(dp2032
ag4
aa(lp2033
(dp2034
ag4
aa(lp2035
(dp2036
ag4
aa(lp2037
(dp2038
ag4
aa(lp2039
(dp2040
ag4
aa(lp2041
(dp2042
ag4
aa(lp2043
(dp2044
ag4
aa(lp2045
(dp2046
ag4
aa(lp2047
(dp2048
ag4
aa(lp2049
(dp2050
ag4
aa(lp2051
(dp2052
ag4
aa(lp2053
(dp2054
ag4
aa(lp2055
(dp2056
ag4
aa(lp2057
(dp2058
ag4
aa(lp2059
(dp2060
ag4
aa(lp2061
(dp2062
ag4
aa(lp2063
(dp2064
ag4
aa(lp2065
(dp2066
ag4
aa(lp2067
(dp2068
ag4
aa(lp2069
(dp2070
ag4
aa(lp2071
(dp2072
ag4
aa(lp2073
(dp2074
ag4
aa(lp2075
(dp2076
ag4
aa(lp2077
(dp2078
ag4
aa(lp2079
(dp2080
ag4
aa(lp2081
(dp2082
ag4
aa(lp2083
(dp2084
ag4
aa(lp2085
(dp2086
ag4
aa(lp2087
(dp2088
ag4
aa(lp2089
(dp2090
ag4
aa(lp2091
(dp2092
ag4
aa(lp2093
(dp2094
ag4
aa(lp2095
(dp2096
ag4
aa(lp2097
(dp2098
ag4
aa(lp2099
(dp2100
ag4
aa(lp2101
(dp2102
ag4
aa(lp2103
(dp2104
ag4
aa(lp2105
(dp2106
ag4
aa(lp2107
(dp2108
ag4
aa(lp2109
(dp2110
ag4
aa(lp2111
(dp2112
ag4
aa(lp2113
(dp2114
ag4
aa(lp2115
(dp2116
ag4
aa(lp2117
(dp2118
ag4
aa(lp2119
(dp2120
ag4
aa(lp2121
(dp2122
ag4
aa(lp2123
(dp2124
ag4
aa(lp2125
(dp2126
ag4
aa(lp2127
(dp2128
ag4
aa(lp2129
(dp2130
ag4
aa(lp2131
(dp2132
ag4
aa(lp2133
(dp2134
ag4
aa(lp2135
(dp2136
ag4
aa(lp2137
(dp2138
ag4
aa(lp2139
(dp2140
ag4
aa(lp2141
(dp2142
ag4
aa(lp2143
(dp2144
ag4
aa(lp2145
(dp2146
ag4
aa(lp2147
(dp2148
ag4
aa(lp2149
(dp2150
ag4
aa(lp2151
(dp2152
ag4
aa(lp2153
(dp2154
ag4
aa(lp2155
(dp2156
ag4
aa(lp2157
(dp2158
ag4
aa(lp2159
(dp2160
ag4
aa(lp2161
(dp2162
ag4
aa(lp2163
(dp2164
ag4
aa(lp2165
(dp2166
ag4
aa(lp2167
(dp2168
ag4
aa(lp2169
(dp2170
ag4
aa(lp2171
(dp2172
ag4
aa(lp2173
(dp2174
ag4
aa(lp2175
(dp2176
ag4
aa(lp2177
(dp2178
ag4
aa(lp2179
(dp2180
ag4
aa(lp2181
(dp2182
ag4
aa(lp2183
(dp2184
ag4
aa(lp2185
(dp2186
ag4
aa(lp2187
(dp2188
ag4
aa(lp2189
(dp2190
ag4
aa(lp2191
(dp2192
ag4
aa(lp2193
(dp2194
ag4
aa(lp2195
(dp2196
ag4
aa(lp2197
(dp2198
ag4
aa(lp2199
(dp2200
ag4
aa(lp2201
(dp2202
ag4
aa(lp2203
(dp2204
ag4
aa(lp2205
(dp2206
ag4
aa(lp2207
(dp2208
ag4
aa(lp2209
(dp2210
ag4
aa(lp2211
(dp2212
ag4
aa(lp2213
(dp2214
ag4
aa(lp2215
(dp2216
ag4
aa(lp2217
(dp2218
ag4
aa(lp2219
(dp2220
ag4
aa(lp2221
(dp2222
ag4
aa(lp2223
(dp2224
ag4
aa(lp2225
(dp2226
ag4
aa(lp2227
(dp2228
ag4
aa(lp2229
(dp2230
ag4
aa(lp2231
(dp2232
ag4
aa(lp2233
(dp2234
ag4
aa(lp2235
(dp2236
ag4
aa(lp2237
(dp2238
ag4
aa(lp2239
(dp2240
ag4
aa(lp2241
(dp2242
ag4
aa(lp2243
(dp2244
ag4
aa(lp2245
(dp2246
ag4
aa(lp2247
(dp2248
ag4
aa(lp2249
(dp2250
ag4
aa(lp2251
(dp2252
ag4
aa(lp2253
(dp2254
ag4
aa(lp2255
(dp2256
ag4
aa(lp2257
(dp2258
ag4
aa(lp2259
(dp2260
ag4
aa(lp2261
(dp2262
ag4
aa(lp2263
(dp2264
ag4
aa(lp2265
(dp2266
ag4
aa(lp2267
(dp2268
ag4
aa(lp2269
(dp2270
ag4
aa(lp2271
(dp2272
ag4
aa(lp2273
(dp2274
ag4
aa(lp2275
(dp2276
ag4
aa(lp2277
(dp2278
ag4
aa(lp2279
(dp2280
ag4
aa(lp2281
(dp2282
ag4
aa(lp2283
(dp2284
ag4
aa(lp2285
(dp2286
ag4
aa(lp2287
(dp2288
ag4
aa(lp2289
(dp2290
ag4
aa(lp2291
(dp2292
ag4
aa(lp2293
(dp2294
ag4
aa(lp2295
(dp2296
ag4
aa(lp2297
(dp2298
ag4
aa(lp2299
(dp2300
ag4
aa(lp2301
(dp2302
ag4
aa(lp2303
(dp2304
ag4
aa(lp2305
(dp2306
ag4
aa(lp2307
(dp2308
ag4
aa(lp2309
(dp2310
ag4
aa(lp2311
(dp2312
ag4
aa(lp2313
(dp2314
ag4
aa(lp2315
(dp2316
ag4
aa(lp2317
(dp2318
ag4
aa(lp2319
(dp2320
ag4
aa(lp2321
(dp2322
ag4
aa(lp2323
(dp2324
ag4
aa(lp2325
(dp2326
ag4
aa(lp2327
(dp2328
ag4
aa(lp2329
(dp2330
ag4
aa(lp2331
(dp2332
ag4
aa(lp2333
(dp2334
ag4
aa(lp2335
(dp2336
ag4
aa(lp2337
(dp2338
ag4
aa(lp2339
(dp2340
ag4
aa(lp2341
(dp2342
ag4
aa(lp2343
(dp2344
ag4
aa(lp2345
(dp2346
ag4
aa(lp2347
(dp2348
ag4
aa(lp2349
(dp2350
ag4
aa(lp2351
(dp2352
ag4
aa(lp2353
(dp2354
ag4
aa(lp2355
(dp2356
ag4
aa(lp2357
(dp2358
ag4
aa(lp2359
(dp2360
ag4
aa(lp2361
(dp2362
ag4
aa(lp2363
(dp2364
ag4
aa(lp2365
(dp2366
ag4
aa(lp2367
(dp2368
ag4
aa(lp2369
(dp2370
ag4
aa(lp2371
(dp2372
ag4
aa(lp2373
(dp2374
ag4
aa(lp2375
(dp2376
ag4
aa(lp2377
(dp2378
ag4
aa(lp2379
(dp2380
ag4
aa(lp2381
(dp2382
ag4
aa(lp2383
(dp2384
ag4
aa(lp2385
(dp2386
ag4
aa(lp2387
(dp2388
ag4
aa(lp2389
(dp2390
ag4
aa(lp2391
(dp2392
ag4
aa(lp2393
(dp2394
ag4
aa(lp2395
(dp2396
ag4
aa(lp2397
(dp2398
ag4
aa(lp2399
(dp2400
ag4
aa(lp2401
(dp2402
ag4
aa(lp2403
(dp2404
ag4
aa(lp2405
(dp2406
ag4
aa(lp2407
(dp2408
ag4
aa(lp2409
(dp2410
ag4
aa(lp2411
(dp2412
ag4
aa(lp2413
(dp2414
ag4
aa(lp2415
(dp2416
ag4
aa(lp2417
(dp2418
ag4
aa(lp2419
(dp2420
ag4
aa(lp2421
(dp2422
ag4
aa(lp2423
(dp2424
ag4
aa(lp2425
(dp2426
ag4
aa(lp2427
(dp2428
ag4
aa(lp2429
(dp2430
ag4
aa(lp2431
(dp2432
ag4
aa(lp2433
(dp2434
ag4
aa(lp2435
(dp2436
ag4
aa(lp2437
(dp2438
ag4
aa(lp2439
(dp2440
ag4
aa(lp2441
(dp2442
ag4
aa(lp2443
(dp2444
ag4
aa(lp2445
(dp2446
ag4
aa(lp2447
(dp2448
ag4
aa(lp2449
(dp2450
ag4
aa(lp2451
(dp2452
ag4
aa(lp2453
(dp2454
ag4
aa(lp2455
(dp2456
ag4
aa(lp2457
(dp2458
ag4
aa(lp2459
(dp2460
ag4
aa(lp2461
(dp2462
ag4
aa(lp2463
(dp2464
ag4
aa(lp2465
(dp2466
ag4
aa(lp2467
(dp2468
ag4
aa(lp2469
(dp2470
ag4
aa(lp2471
(dp2472
ag4
aa(lp2473
(dp2474
ag4
aa(lp2475
(dp2476
ag4
aa(lp2477
(dp2478
ag4
aa(lp2479
(dp2480
ag4
aa(lp2481
(dp2482
ag4
aa(lp2483
(dp2484
ag4
aa(lp2485
(dp2486
ag4
aa(lp2487
(dp2488
ag4
aa(lp2489
(dp2490
ag4
aa(lp2491
(dp2492
ag4
aa(lp2493
(dp2494
ag4
aa(lp2495
(dp2496
ag4
aa(lp2497
(dp2498
ag4
aa(lp2499
(dp2500
ag4
aa(lp2501
(dp2502
ag4
aa(lp2503
(dp2504
ag4
aa(lp2505
(dp2506
ag4
aa(lp2507
(dp2508
ag4
aa(lp2509
(dp2510
ag4
aa(lp2511
(dp2512
ag4
aa(lp2513
(dp2514
ag4
aa(lp2515
(dp2516
ag4
aa(lp2517
(dp2518
ag4
aa(lp2519
(dp2520
ag4
aa(lp2521
(dp2522
ag4
aa(lp2523
(dp2524
ag4
aa(lp2525
(dp2526
ag4
aa(lp2527
(dp2528
ag4
aa(lp2529
(dp2530
ag4
aa(lp2531
(dp2532
ag4
aa(lp2533
(dp2534
ag4
aa(lp2535
(dp2536
ag4
aa(lp2537
(dp2538
ag4
aa(lp2539
(dp2540
ag4
aa(lp2541
(dp2542
ag4
aa(lp2543
(dp2544
ag4
aa(lp2545
(dp2546
ag4
aa(lp2547
(dp2548
ag4
aa(lp2549
(dp2550
ag4
aa(lp2551
(dp2552
ag4
aa(lp2553
(dp2554
ag4
aa(lp2555
(dp2556
ag4
aa(lp2557
(dp2558
ag4
aa(lp2559
(dp2560
ag4
aa(lp2561
(dp2562
ag4
aa(lp2563
(dp2564
ag4
aa(lp2565
(dp2566
ag4
aa(lp2567
(dp2568
ag4
aa(lp2569
(dp2570
ag4
aa(lp2571
(dp2572
ag4
aa(lp2573
(dp2574
ag4
aa(lp2575
(dp2576
ag4
aa(lp2577
(dp2578
ag4
aa(lp2579
(dp2580
ag4
aa(lp2581
(dp2582
ag4
aa(lp2583
(dp2584
ag4
aa(lp2585
(dp2586
ag4
aa(lp2587
(dp2588
ag4
aa(lp2589
(dp2590
ag4
aa(lp2591
(dp2592
ag4
aa(lp2593
(dp2594
ag4
aa(lp2595
(dp2596
ag4
aa(lp2597
(dp2598
ag4
aa(lp2599
(dp2600
ag4
aa(lp2601
(dp2602
ag4
aa(lp2603
(dp2604
ag4
aa(lp2605
(dp2606
ag4
aa(lp2607
(dp2608
ag4
aa(lp2609
(dp2610
ag4
aa(lp2611
(dp2612
ag4
aa(lp2613
(dp2614
ag4
aa(lp2615
(dp2616
ag4
aa(lp2617
(dp2618
ag4
aa(lp2619
(dp2620
ag4
aa(lp2621
(dp2622
ag4
aa(lp2623
(dp2624
ag4
aa(lp2625
(dp2626
ag4
aa(lp2627
(dp2628
ag4
aa(lp2629
(dp2630
ag4
aa(lp2631
(dp2632
ag4
aa(lp2633
(dp2634
ag4
aa(lp2635
(dp2636
ag4
aa(lp2637
(dp2638
ag4
aa(lp2639
(dp2640
ag4
aa(lp2641
(dp2642
ag4
aa(lp2643
(dp2644
ag4
aa(lp2645
(dp2646
ag4
aa(lp2647
(dp2648
ag4
aa(lp2649
(dp2650
ag4
aa(lp2651
(dp2652
ag4
aa(lp2653
(dp2654
ag4
aa(lp2655
(dp2656
ag4
aa(lp2657
(dp2658
ag4
aa(lp2659
(dp2660
ag4
aa(lp2661
(dp2662
ag4
aa(lp2663
(dp2664
ag4
aa(lp2665
(dp2666
ag4
aa(lp2667
(dp2668
ag4
aa(lp2669
(dp2670
ag4
aa(lp2671
(dp2672
ag4
aa(lp2673
(dp2674
ag4
aa(lp2675
(dp2676
ag4
aa(lp2677
(dp2678
ag4
aa(lp2679
(dp2680
ag4
aa(lp2681
(dp2682
ag4
aa(lp2683
(dp2684
ag4
aa(lp2685
(dp2686
ag4
aa(lp2687
(dp2688
ag4
aa(lp2689
(dp2690
ag4
aa(lp2691
(dp2692
ag4
aa(lp2693
(dp2694
ag4
aa(lp2695
(dp2696
ag4
aa(lp2697
(dp2698
ag4
aa(lp2699
(dp2700
ag4
aa(lp2701
(dp2702
ag4
aa(lp2703
(dp2704
ag4
aa(lp2705
(dp2706
ag4
aa(lp2707
(dp2708
ag4
aa(lp2709
(dp2710
ag4
aa(lp2711
(dp2712
ag4
aa(lp2713
(dp2714
ag4
aa(lp2715
(dp2716
ag4
aa(lp2717
(dp2718
ag4
aa(lp2719
(dp2720
ag4
aa(lp2721
(dp2722
ag4
aa(lp2723
(dp2724
ag4
aa(lp2725
(dp2726
ag4
aa(lp2727
(dp2728
ag4
aa(lp2729
(dp2730
ag4
aa(lp2731
(dp2732
ag4
aa(lp2733
(dp2734
ag4
aa(lp2735
(dp2736
ag4
aa(lp2737
(dp2738
ag4
aa(lp2739
(dp2740
ag4
aa(lp2741
(dp2742
ag4
aa(lp2743
(dp2744
ag4
aa(lp2745
(dp2746
ag4
aa(lp2747
(dp2748
ag4
aa(lp2749
(dp2750
ag4
aa(lp2751
(dp2752
ag4
aa(lp2753
(dp2754
ag4
aa(lp2755
(dp2756
ag4
aa(lp2757
(dp2758
ag4
aa(lp2759
(dp2760
ag4
aa(lp2761
(dp2762
ag4
aa(lp2763
(dp2764
ag4
aa(lp2765
(dp2766
ag4
aa(lp2767
(dp2768
ag4
aa(lp2769
(dp2770
ag4
aa(lp2771
(dp2772
ag4
aa(lp2773
(dp2774
ag4
aa(lp2775
(dp2776
ag4
aa(lp2777
(dp2778
ag4
aa(lp2779
(dp2780
ag4
aa(lp2781
(dp2782
ag4
aa(lp2783
(dp2784
ag4
aa(lp2785
(dp2786
ag4
aa(lp2787
(dp2788
ag4
aa(lp2789
(dp2790
ag4
aa(lp2791
(dp2792
ag4
aa(lp2793
(dp2794
ag4
aa(lp2795
(dp2796
ag4
aa(lp2797
(dp2798
ag4
aa(lp2799
(dp2800
ag4
aa(lp2801
(dp2802
ag4
aa(lp2803
(dp2804
ag4
aa(lp2805
(dp2806
ag4
aa(lp2807
(dp2808
ag4
aa(lp2809
(dp2810
ag4
aa(lp2811
(dp2812
ag4
aa(lp2813
(dp2814
ag4
aa(lp2815
(dp2816
ag4
aa(lp2817
(dp2818
ag4
aa(lp2819
(dp2820
ag4
aa(lp2821
(dp2822
ag4
aa(lp2823
(dp2824
ag4
aa(lp2825
(dp2826
ag4
aa(lp2827
(dp2828
ag4
aa(lp2829
(dp2830
ag4
aa(lp2831
(dp2832
ag4
aa(lp2833
(dp2834
ag4
aa(lp2835
(dp2836
ag4
aa(lp2837
(dp2838
ag4
aa(lp2839
(dp2840
ag4
aa(lp2841
(dp2842
ag4
aa(lp2843
(dp2844
ag4
aa(lp2845
(dp2846
ag4
aa(lp2847
(dp2848
ag4
aa(lp2849
(dp2850
ag4
aa(lp2851
(dp2852
ag4
aa(lp2853
(dp2854
ag4
aa(lp2855
(dp2856
ag4
aa(lp2857
(dp2858
ag4
aa(lp2859
(dp2860
ag4
aa(lp2861
(dp2862
ag4
aa(lp2863
(dp2864
ag4
aa(lp2865
(dp2866
ag4
aa(lp2867
(dp2868
ag4
aa(lp2869
(dp2870
ag4
aa(lp2871
(dp2872
ag4
aa(lp2873
(dp2874
ag4
aa(lp2875
(dp2876
ag4
aa(lp2877
(dp2878
ag4
aa(lp2879
(dp2880
ag4
aa(lp2881
(dp2882
ag4
aa(lp2883
(dp2884
ag4
aa(lp2885
(dp2886
ag4
aa(lp2887
(dp2888
ag4
aa(lp2889
(dp2890
ag4
aa(lp2891
(dp2892
ag4
aa(lp2893
(dp2894
ag4
aa(lp2895
(dp2896
ag4
aa(lp2897
(dp2898
ag4
aa(lp2899
(dp2900
ag4
aa(lp2901
(dp2902
ag4
aa(lp2903
(dp2904
ag4
aa(lp2905
(dp2906
ag4
aa(lp2907
(dp2908
ag4
aa(lp2909
(dp2910
ag4
aa(lp2911
(dp2912
ag4
aa(lp2913
(dp2914
ag4
aa(lp2915
(dp2916
ag4
aa(lp2917
(dp2918
ag4
aa(lp2919
(dp2920
ag4
aa(lp2921
(dp2922
ag4
aa(lp2923
(dp2924
ag4
aa(lp2925
(dp2926
ag4
aa(lp2927
(dp2928
ag4
aa(lp2929
(dp2930
ag4
aa(lp2931
(dp2932
ag4
aa(lp2933
(dp2934
ag4
aa(lp2935
(dp2936
ag4
aa(lp2937
(dp2938
ag4
aa(lp2939
(dp2940
ag4
aa(lp2941
(dp2942
ag4
aa(lp2943
(dp2944
ag4
aa(lp2945
(dp2946
ag4
aa(lp2947
(dp2948
ag4
aa(lp2949
(dp2950
ag4
aa(lp2951
(dp2952
ag4
aa(lp2953
(dp2954
ag4
aa(lp2955
(dp2956
ag4
aa(lp2957
(dp2958
ag4
aa(lp2959
(dp2960
ag4
aa(lp2961
(dp2962
ag4
aa(lp2963
(dp2964
ag4
aa(lp2965
(dp2966
ag4
aa(lp2967
(dp2968
ag4
aa(lp2969
(dp2970
ag4
aa(lp2971
(dp2972
ag4
aa(lp2973
(dp2974
ag4
aa(lp2975
(dp2976
ag4
aa(lp2977
(dp2978
ag4
aa(lp2979
(dp2980
ag4
aa(lp2981
(dp2982
ag4
aa(lp2983
(dp2984
ag4
aa(lp2985
(dp2986
ag4
aa(lp2987
(dp2988
ag4
aa(lp2989
(dp2990
ag4
aa(lp2991
(dp2992
ag4
aa(lp2993
(dp2994
ag4
aa(lp2995
(dp2996
ag4
aa(lp2997
(dp2998
ag4
aa(lp2999
(dp3000
ag4
aa(lp3001
(dp3002
ag4
aa(lp3003
(dp3004
ag4
aa(lp3005
(dp3006
ag4
aa(lp3007
(dp3008
ag4
aa(lp3009
(dp3010
ag4
aa(lp3011
(dp3012
ag4
aa(lp3013
(dp3014
ag4
aa(lp3015
(dp3016
ag4
aa(lp3017
(dp3018
ag4
aa(lp3019
(dp3020
ag4
aa(lp3021
(dp3022
ag4
aa(lp3023
(dp3024
ag4
aa(lp3025
(dp3026
ag4
aa(lp3027
(dp3028
ag4
aa(lp3029
(dp3030
ag4
aa(lp3031
(dp3032
ag4
aa(lp3033
(dp3034
ag4
aa(lp3035
(dp3036
ag4
aa(lp3037
(dp3038
ag4
aa(lp3039
(dp3040
ag4
aa(lp3041
(dp3042
ag4
aa(lp3043
(dp3044
ag4
aa(lp3045
(dp3046
ag4
aa(lp3047
(dp3048
ag4
aa(lp3049
(dp3050
ag4
aa(lp3051
(dp3052
ag4
aa(lp3053
(dp3054
ag4
aa(lp3055
(dp3056
ag4
aa(lp3057
(dp3058
ag4
aa(lp3059
(dp3060
ag4
aa(lp3061
(dp3062
ag4
aa(lp3063
(dp3064
ag4
aa(lp3065
(dp3066
ag4
aa(lp3067
(dp3068
ag4
aa(lp3069
(dp3070
ag4
aa(lp3071
(dp3072
ag4
aa(lp3073
(dp3074
ag4
aa(lp3075
(dp3076
ag4
aa(lp3077
(dp3078
ag4
aa(lp3079
(dp3080
ag4
aa(lp3081
(dp3082
ag4
aa(lp3083
(dp3084
ag4
aa(lp3085
(dp3086
ag4
aa(lp3087
(dp3088
ag4
aa(lp3089
(dp3090
ag4
aa(lp3091
(dp3092
ag4
aa(lp3093
(dp3094
ag4
aa(lp3095
(dp3096
ag4
aa(lp3097
(dp3098
ag4
aa(lp3099
(dp3100
ag4
aa(lp3101
(dp3102
ag4
aa(lp3103
(dp3104
ag4
aa(lp3105
(dp3106
ag4
aa(lp3107
(dp3108
ag4
aa(lp3109
(dp3110
ag4
aa(lp3111
(dp3112
ag4
aa(lp3113
(dp3114
ag4
aa(lp3115
(dp3116
ag4
aa(lp3117
(dp3118
ag4
aa(lp3119
(dp3120
ag4
aa(lp3121
(dp3122
ag4
aa(lp3123
(dp3124
ag4
aa(lp3125
(dp3126
ag4
aa(lp3127
(dp3128
ag4
aa(lp3129
(dp3130
ag4
aa(lp3131
(dp3132
ag4
aa(lp3133
(dp3134
ag4
aa(lp3135
(dp3136
ag4
aa(lp3137
(dp3138
ag4
aa(lp3139
(dp3140
ag4
aa(lp3141
(dp3142
ag4
aa(lp3143
(dp3144
ag4
aa(lp3145
(dp3146
ag4
aa(lp3147
(dp3148
ag4
aa(lp3149
(dp3150
ag4
aa(lp3151
(dp3152
ag4
aa(lp3153
(dp3154
ag4
aa(lp3155
(dp3156
ag4
aa(lp3157
(dp3158
ag4
aa(lp3159
(dp3160
ag4
aa(lp3161
(dp3162
ag4
aa(lp3163
(dp3164
ag4
aa(lp3165
(dp3166
ag4
aa(lp3167
(dp3168
ag4
aa(lp3169
(dp3170
ag4
aa(lp3171
(dp3172
ag4
aa(lp3173
(dp3174
ag4
aa(lp3175
(dp3176
ag4
aa(lp3177
(dp3178
ag4
aa(lp3179
(dp3180
ag4
aa(lp3181
(dp3182
ag4
aa(lp3183
(dp3184
ag4
aa(lp3185
(dp3186
ag4
aa(lp3187
(dp3188
ag4
aa(lp3189
(dp3190
ag4
aa(lp3191
(dp3192
ag4
aa(lp3193
(dp3194
ag4
aa(lp3195
(dp3196
ag4
aa(lp3197
(dp3198
ag4
aa(lp3199
(dp3200
ag4
aa(lp3201
(dp3202
ag4
aa(lp3203
(dp3204
ag4
aa(lp3205
(dp3206
ag4
aa(lp3207
(dp3208
ag4
aa(lp3209
(dp3210
ag4
aa(lp3211
(dp3212
ag4
aa(lp3213
(dp3214
ag4
aa(lp3215
(dp3216
ag4
aa(lp3217
(dp3218
ag4
aa(lp3219
(dp3220
ag4
aa(lp3221
(dp3222
ag4
aa(lp3223
(dp3224
ag4
aa(lp3225
(dp3226
ag4
aa(lp3227
(dp3228
ag4
aa(lp3229
(dp3230
ag4
aa(lp3231
(dp3232
ag4
aa(lp3233
(dp3234
ag4
aa(lp3235
(dp3236
ag4
aa(lp3237
(dp3238
ag4
aa(lp3239
(dp3240
ag4
aa(lp3241
(dp3242
ag4
aa(lp3243
(dp3244
ag4
aa(lp3245
(dp3246
ag4
aa(lp3247
(dp3248
ag4
aa(lp3249
(dp3250
ag4
aa(lp3251
(dp3252
ag4
aa(lp3253
(dp3254
ag4
aa(lp3255
(dp3256
ag4
aa(lp3257
(dp3258
ag4
aa(lp3259
(dp3260
ag4
aa(lp3261
(dp3262
ag4
aa(lp3263
(dp3264
ag4
aa(lp3265
(dp3266
ag4
aa(lp3267
(dp3268
ag4
aa(lp3269
(dp3270
ag4
aa(lp3271
(dp3272
ag4
aa(lp3273
(dp3274
ag4
aa(lp3275
(dp3276
ag4
aa(lp3277
(dp3278
ag4
aa(lp3279
(dp3280
ag4
aa(lp3281
(dp3282
ag4
aa(lp3283
(dp3284
ag4
aa(lp3285
(dp3286
ag4
aa(lp3287
(dp3288
ag4
aa(lp3289
(dp3290
ag4
aa(lp3291
(dp3292
ag4
aa(lp3293
(dp3294
ag4
aa(lp3295
(dp3296
ag4
aa(lp3297
(dp3298
ag4
aa(lp3299
(dp3300
ag4
aa(lp3301
(dp3302
ag4
aa(lp3303
(dp3304
ag4
aa(lp3305
(dp3306
ag4
aa(lp3307
(dp3308
ag4
aa(lp3309
(dp3310
ag4
aa(lp3311
(dp3312
ag4
aa(lp3313
(dp3314
ag4
aa(lp3315
(dp3316
ag4
aa(lp3317
(dp3318
ag4
aa(lp3319
(dp3320
ag4
aa(lp3321
(dp3322
ag4
aa(lp3323
(dp3324
ag4
aa(lp3325
(dp3326
ag4
aa(lp3327
(dp3328
ag4
aa(lp3329
(dp3330
ag4
aa(lp3331
(dp3332
ag4
aa(lp3333
(dp3334
ag4
aa(lp3335
(dp3336
ag4
aa(lp3337
(dp3338
ag4
aa(lp3339
(dp3340
ag4
aa(lp3341
(dp3342
ag4
aa(lp3343
(dp3344
ag4
aa(lp3345
(dp3346
ag4
aa(lp3347
(dp3348
ag4
aa(lp3349
(dp3350
ag4
aa(lp3351
(dp3352
ag4
aa(lp3353
(dp3354
ag4
aa(lp3355
(dp3356
ag4
aa(lp3357
(dp3358
ag4
aa(lp3359
(dp3360
ag4
aa(lp3361
(dp3362
ag4
aa(lp3363
(dp3364
ag4
aa(lp3365
(dp3366
ag4
aa(lp3367
(dp3368
ag4
aa(lp3369
(dp3370
ag4
aa(lp3371
(dp3372
ag4
aa(lp3373
(dp3374
ag4
aa(lp3375
(dp3376
ag4
aa(lp3377
(dp3378
ag4
aa(lp3379
(dp3380
ag4
aa(lp3381
(dp3382
ag4
aa(lp3383
(dp3384
ag4
aa(lp3385
(dp3386
ag4
aa(lp3387
(dp3388
ag4
aa(lp3389
(dp3390
ag4
aa(lp3391
(dp3392
ag4
aa(lp3393
(dp3394
ag4
aa(lp3395
(dp3396
ag4
aa(lp3397
(dp3398
ag4
aa(lp3399
(dp3400
ag4
aa(lp3401
(dp3402
ag4
aa(lp3403
(dp3404
ag4
aa(lp3405
(dp3406
ag4
aa(lp3407
(dp3408
ag4
aa(lp3409
(dp3410
ag4
aa(lp3411
(dp3412
ag4
aa(lp3413
(dp3414
ag4
aa(lp3415
(dp3416
ag4
aa(lp3417
(dp3418
ag4
aa(lp3419
(dp3420
ag4
aa(lp3421
(dp3422
ag4
aa(lp3423
(dp3424
ag4
aa(lp3425
(dp3426
ag4
aa(lp3427
(dp3428
ag4
aa(lp3429
(dp3430
ag4
aa(lp3431
(dp3432
ag4
aa(lp3433
(dp3434
ag4
aa(lp3435
(dp3436
ag4
aa(lp3437
(dp3438
ag4
aa(lp3439
(dp3440
ag4
aa(lp3441
(dp3442
ag4
aa(lp3443
(dp3444
ag4
aa(lp3445
(dp3446
ag4
aa(lp3447
(dp3448
ag4
aa(lp3449
(dp3450
ag4
aa(lp3451
(dp3452
ag4
aa(lp3453
(dp3454
ag4
aa(lp3455
(dp3456
ag4
aa(lp3457
(dp3458
ag4
aa(lp3459
(dp3460
ag4
aa(lp3461
(dp3462
ag4
aa(lp3463
(dp3464
ag4
aa(lp3465
(dp3466
ag4
aa(lp3467
(dp3468
ag4
aa(lp3469
(dp3470
ag4
aa(lp3471
(dp3472
ag4
aa(lp3473
(dp3474
ag4
aa(lp3475
(dp3476
ag4
aa(lp3477
(dp3478
ag4
aa(lp3479
(dp3480
ag4
aa(lp3481
(dp3482
ag4
aa(lp3483
(dp3484
ag4
aa(lp3485
(dp3486
ag4
aa(lp3487
(dp3488
ag4
aa(lp3489
(dp3490
ag4
aa(lp3491
(dp3492
ag4
aa(lp3493
(dp3494
ag4
aa(lp3495
(dp3496
ag4
aa(lp3497
(dp3498
ag4
aa(lp3499
(dp3500
ag4
aa(lp3501
(dp3502
ag4
aa(lp3503
(dp3504
ag4
aa(lp3505
(dp3506
ag4
aa(lp3507
(dp3508
ag4
aa(lp3509
(dp3510
ag4
aa(lp3511
(dp3512
ag4
aa(lp3513
(dp3514
ag4
aa(lp3515
(dp3516
ag4
aa(lp3517
(dp3518
ag4
aa(lp3519
(dp3520
ag4
aa(lp3521
(dp3522
ag4
aa(lp3523
(dp3524
ag4
aa(lp3525
(dp3526
ag4
aa(lp3527
(dp3528
ag4
aa(lp3529
(dp3530
ag4
aa(lp3531
(dp3532
ag4
aa(lp3533
(dp3534
ag4
aa(lp3535
(dp3536
ag4
aa(lp3537
(dp3538
ag4
aa(lp3539
(dp3540
ag4
aa(lp3541
(dp3542
ag4
aa(lp3543
(dp3544
ag4
aa(lp3545
(dp3546
ag4
aa(lp3547
(dp3548
ag4
aa(lp3549
(dp3550
ag4
aa(lp3551
(dp3552
ag4
aa(lp3553
(dp3554
ag4
aa(lp3555
(dp3556
ag4
aa(lp3557
(dp3558
ag4
aa(lp3559
(dp3560
ag4
aa(lp3561
(dp3562
ag4
aa(lp3563
(dp3564
ag4
aa(lp3565
(dp3566
ag4
aa(lp3567
(dp3568
ag4
aa(lp3569
(dp3570
ag4
aa(lp3571
(dp3572
ag4
aa(lp3573
(dp3574
ag4
aa(lp3575
(dp3576
ag4
aa(lp3577
(dp3578
ag4
aa(lp3579
(dp3580
ag4
aa(lp3581
(dp3582
ag4
aa(lp3583
(dp3584
ag4
aa(lp3585
(dp3586
ag4
aa(lp3587
(dp3588
ag4
aa(lp3589
(dp3590
ag4
aa(lp3591
(dp3592
ag4
aa(lp3593
(dp3594
ag4
aa(lp3595
(dp3596
ag4
aa(lp3597
(dp3598
ag4
aa(lp3599
(dp3600
ag4
aa(lp3601
(dp3602
ag4
aa(lp3603
(dp3604
ag4
aa(lp3605
(dp3606
ag4
aa(lp3607
(dp3608
ag4
aa(lp3609
(dp3610
ag4
aa(lp3611
(dp3612
ag4
aa(lp3613
(dp3614
ag4
aa(lp3615
(dp3616
ag4
aa(lp3617
(dp3618
ag4
aa(lp3619
(dp3620
ag4
aa(lp3621
(dp3622
ag4
aa(lp3623
(dp3624
ag4
aa(lp3625
(dp3626
ag4
aa(lp3627
(dp3628
ag4
aa(lp3629
(dp3630
ag4
aa(lp3631
(dp3632
ag4
aa(lp3633
(dp3634
ag4
aa(lp3635
(dp3636
ag4
aa(lp3637
(dp3638
ag4
aa(lp3639
(dp3640
ag4
aa(lp3641
(dp3642
ag4
aa(lp3643
(dp3644
ag4
aa(lp3645
(dp3646
ag4
aa(lp3647
(dp3648
ag4
aa(lp3649
(dp3650
ag4
aa(lp3651
(dp3652
ag4
aa(lp3653
(dp3654
ag4
aa(lp3655
(dp3656
ag4
aa(lp3657
(dp3658
ag4
aa(lp3659
(dp3660
ag4
aa(lp3661
(dp3662
ag4
aa(lp3663
(dp3664
ag4
aa(lp3665
(dp3666
ag4
aa(lp3667
(dp3668
ag4
aa(lp3669
(dp3670
ag4
aa(lp3671
(dp3672
ag4
aa(lp3673
(dp3674
ag4
aa(lp3675
(dp3676
ag4
aa(lp3677
(dp3678
ag4
aa(lp3679
(dp3680
ag4
aa(lp3681
(dp3682
ag4
aa(lp3683
(dp3684
ag4
aa(lp3685
(dp3686
ag4
aa(lp3687
(dp3688
ag4
aa(lp3689
(dp3690
ag4
aa(lp3691
(dp3692
ag4
aa(lp3693
(dp3694
ag4
aa(lp3695
(dp3696
ag4
aa(lp3697
(dp3698
ag4
aa(lp3699
(dp3700
ag4
aa(lp3701
(dp3702
ag4
aa(lp3703
(dp3704
ag4
aa(lp3705
(dp3706
ag4
aa(lp3707
(dp3708
ag4
aa(lp3709
(dp3710
ag4
aa(lp3711
(dp3712
ag4
aa(lp3713
(dp3714
ag4
aa(lp3715
(dp3716
ag4
aa(lp3717
(dp3718
ag4
aa(lp3719
(dp3720
ag4
aa(lp3721
(dp3722
ag4
aa(lp3723
(dp3724
ag4
aa(lp3725
(dp3726
ag4
aa(lp3727
(dp3728
ag4
aa(lp3729
(dp3730
ag4
aa(lp3731
(dp3732
ag4
aa(lp3733
(dp3734
ag4
aa(lp3735
(dp3736
ag4
aa(lp3737
(dp3738
ag4
aa(lp3739
(dp3740
ag4
aa(lp3741
(dp3742
ag4
aa(lp3743
(dp3744
ag4
aa(lp3745
(dp3746
ag4
aa(lp3747
(dp3748
ag4
aa(lp3749
(dp3750
ag4
aa(lp3751
(dp3752
ag4
aa(lp3753
(dp3754
ag4
aa(lp3755
(dp3756
ag4
aa(lp3757
(dp3758
ag4
aa(lp3759
(dp3760
ag4
aa(lp3761
(dp3762
ag4
aa(lp3763
(dp3764
ag4
aa(lp3765
(dp3766
ag4
aa(lp3767
(dp3768
ag4
aa(lp3769
(dp3770
ag4
aa(lp3771
(dp3772
ag4
aa(lp3773
(dp3774
ag4
aa(lp3775
(dp3776
ag4
aa(lp3777
(dp3778
ag4
aa(lp3779
(dp3780
ag4
aa(lp3781
(dp3782
ag4
aa(lp3783
(dp3784
ag4
aa(lp3785
(dp3786
ag4
aa(lp3787
(dp3788
ag4
aa(lp3789
(dp3790
ag4
aa(lp3791
(dp3792
ag4
aa(lp3793
(dp3794
ag4
aa(lp3795
(dp3796
ag4
aa(lp3797
(dp3798
ag4
aa(lp3799
(dp3800
ag4
aa(lp3801
(dp3802
ag4
aa(lp3803
(dp3804
ag4
aa(lp3805
(dp3806
ag4
aa(lp3807
(dp3808
ag4
aa(lp3809
(dp3810
ag4
aa(lp3811
(dp3812
ag4
aa(lp3813
(dp3814
ag4
aa(lp3815
(dp3816
ag4
aa(lp3817
(dp3818
ag4
aa(lp3819
(dp3820
ag4
aa(lp3821
(dp3822
ag4
aa(lp3823
(dp3824
ag4
aa(lp3825
(dp3826
ag4
aa(lp3827
(dp3828
ag4
aa(lp3829
(dp3830
ag4
aa(lp3831
(dp3832
ag4
aa(lp3833
(dp3834
ag4
aa(lp3835
(dp3836
ag4
aa(lp3837
(dp3838
ag4
aa(lp3839
(dp3840
ag4
aa(lp3841
(dp3842
ag4
aa(lp3843
(dp3844
ag4
aa(lp3845
(dp3846
ag4
aa(lp3847
(dp3848
ag4
aa(lp3849
(dp3850
ag4
aa(lp3851
(dp3852
ag4
aa(lp3853
(dp3854
ag4
aa(lp3855
(dp3856
ag4
aa(lp3857
(dp3858
ag4
aa(lp3859
(dp3860
ag4
aa(lp3861
(dp3862
ag4
aa(lp3863
(dp3864
ag4
aa(lp3865
(dp3866
ag4
aa(lp3867
(dp3868
ag4
aa(lp3869
(dp3870
ag4
aa(lp3871
(dp3872
ag4
aa(lp3873
(dp3874
ag4
aa(lp3875
(dp3876
ag4
aa(lp3877
(dp3878
ag4
aa(lp3879
(dp3880
ag4
aa(lp3881
(dp3882
ag4
aa(lp3883
(dp3884
ag4
aa(lp3885
(dp3886
ag4
aa(lp3887
(dp3888
ag4
aa(lp3889
(dp3890
ag4
aa(lp3891
(dp3892
ag4
aa(lp3893
(dp3894
ag4
aa(lp3895
(dp3896
ag4
aa(lp3897
(dp3898
ag4
aa(lp3899
(dp3900
ag4
aa(lp3901
(dp3902
ag4
aa(lp3903
(dp3904
ag4
aa(lp3905
(dp3906
ag4
aa(lp3907
(dp3908
ag4
aa(lp3909
(dp3910
ag4
aa(lp3911
(dp3912
ag4
aa(lp3913
(dp3914
ag4
aa(lp3915
(dp3916
ag4
aa(lp3917
(dp3918
ag4
aa(lp3919
(dp3920
ag4
aa(lp3921
(dp3922
ag4
aa(lp3923
(dp3924
ag4
aa(lp3925
(dp3926
ag4
aa(lp3927
(dp3928
ag4
aa(lp3929
(dp3930
ag4
aa(lp3931
(dp3932
ag4
aa(lp3933
(dp3934
ag4
aa(lp3935
(dp3936
ag4
aa(lp3937
(dp3938
ag4
aa(lp3939
(dp3940
ag4
aa(lp3941
(dp3942
ag4
aa(lp3943
(dp3944
ag4
aa(lp3945
(dp3946
ag4
aa(lp3947
(dp3948
ag4
aa(lp3949
(dp3950
ag4
aa(lp3951
(dp3952
ag4
aa(lp3953
(dp3954
ag4
aa(lp3955
(dp3956
ag4
aa(lp3957
(dp3958
ag4
aa(lp3959
(dp3960
ag4
aa(lp3961
(dp3962
ag4
aa(lp3963
(dp3964
ag4
aa(lp3965
(dp3966
ag4
aa(lp3967
(dp3968
ag4
aa(lp3969
(dp3970
ag4
aa(lp3971
(dp3972
ag4
aa(lp3973
(dp3974
ag4
aa(lp3975
(dp3976
ag4
aa(lp3977
(dp3978
ag4
aa(lp3979
(dp3980
ag4
aa(lp3981
(dp3982
ag4
aa(lp3983
(dp3984
ag4
aa(lp3985
(dp3986
ag4
aa(lp3987
(dp3988
ag4
aa(lp3989
(dp3990
ag4
aa(lp3991
(dp3992
ag4
aa(lp3993
(dp3994
ag4
aa(lp3995
(dp3996
ag4
aa(lp3997
(dp3998
ag4
aa(lp3999
(dp4000
ag4
aa(lp4001
(dp4002
ag4
aa(lp4003
(dp4004
ag4
aa(lp4005
(dp4006
ag4
aa(lp4007
(dp4008
ag4
aa(lp4009
(dp4010
ag4
aa(lp4011
(dp4012
ag4
aa(lp4013
(dp4014
ag4
aa(lp4015
(dp4016
ag4
aa(lp4017
(dp4018
ag4
aa(lp4019
(dp4020
ag4
aa(lp4021
(dp4022
ag4
aa(lp4023
(dp4024
ag4
aa(lp4025
(dp4026
ag4
aa(lp4027
(dp4028
ag4
aa(lp4029
(dp4030
ag4
aa(lp4031
(dp4032
ag4
aa(lp4033
(dp4034
ag4
aa(lp4035
(dp4036
ag4
aa(lp4037
(dp4038
ag4
aa(lp4039
(dp4040
ag4
aa(lp4041
(dp4042
ag4
aa(lp4043
(dp4044
ag4
aa(lp4045
(dp4046
ag4
aa(lp4047
(dp4048
ag4
aa(lp4049
(dp4050
ag4
aa(lp4051
(dp4052
ag4
aa(lp4053
(dp4054
ag4
aa(lp4055
(dp4056
ag4
aa(lp4057
(dp4058
ag4
aa(lp4059
(dp4060
ag4
aa(lp4061
(dp4062
ag4
aa(lp4063
(dp4064
ag4
aa(lp4065
(dp4066
ag4
aa(lp4067
(dp4068
ag4
aa(lp4069
(dp4070
ag4
aa(lp4071
(dp4072
ag4
aa(lp4073
(dp4074
ag4
aa(lp4075
(dp4076
ag4
aa(lp4077
(dp4078
ag4
aa(lp4079
(dp4080
ag4
aa(lp4081
(dp4082
ag4
aa(lp4083
(dp4084
ag4
aa(lp4085
(dp4086
ag4
aa(lp4087
(dp4088
ag4
aa(lp4089
(dp4090
ag4
aa(lp4091
(dp4092
ag4
aa(lp4093
(dp4094
ag4
aa(lp4095
(dp4096
ag4
aa(lp4097
(dp4098
ag4
aa(lp4099
(dp4100
ag4
aa(lp4101
(dp4102
ag4
aa(lp4103
(dp4104
ag4
aa(lp4105
(dp4106
ag4
aa(lp4107
(dp4108
ag4
aa(lp4109
(dp4110
ag4
aa(lp4111
(dp4112
ag4
aa(lp4113
(dp4114
ag4
aa(lp4115
(dp4116
ag4
aa(lp4117
(dp4118
ag4
aa(lp4119
(dp4120
ag4
aa(lp4121
(dp4122
ag4
aa(lp4123
(dp4124
ag4
aa(lp4125
(dp4126
ag4
aa(lp4127
(dp4128
ag4
aa(lp4129
(dp4130
ag4
aa(lp4131
(dp4132
ag4
aa(lp4133
(dp4134
ag4
aa(lp4135
(dp4136
ag4
aa(lp4137
(dp4138
ag4
aa(lp4139
(dp4140
ag4
aa(lp4141
(dp4142
ag4
aa(lp4143
(dp4144
ag4
aa(lp4145
(dp4146
ag4
aa(lp4147
(dp4148
ag4
aa(lp4149
(dp4150
ag4
aa(lp4151
(dp4152
ag4
aa(lp4153
(dp4154
ag4
aa(lp4155
(dp4156
ag4
aa(lp4157
(dp4158
ag4
aa(lp4159
(dp4160
ag4
aa(lp4161
(dp4162
ag4
aa(lp4163
(dp4164
ag4
aa(lp4165
(dp4166
ag4
aa(lp4167
(dp4168
ag4
aa(lp4169
(dp4170
ag4
aa(lp4171
(dp4172
ag4
aa(lp4173
(dp4174
ag4
aa(lp4175
(dp4176
ag4
aa(lp4177
(dp4178
ag4
aa(lp4179
(dp4180
ag4
aa(lp4181
(dp4182
ag4
aa(lp4183
(dp4184
ag4
aa(lp4185
(dp4186
ag4
aa(lp4187
(dp4188
ag4
aa(lp4189
(dp4190
ag4
aa(lp4191
(dp4192
ag4
aa(lp4193
(dp4194
ag4
aa(lp4195
(dp4196
ag4
aa(lp4197
(dp4198
ag4
aa(lp4199
(dp4200
ag4
aa(lp4201
(dp4202
ag4
aa(lp4203
(dp4204
ag4
aa(lp4205
(dp4206
ag4
aa(lp4207
(dp4208
ag4
aa(lp4209
(dp4210
ag4
aa(lp4211
(dp4212
ag4
aa(lp4213
(dp4214
ag4
aa(lp4215
(dp4216
ag4
aa(lp4217
(dp4218
ag4
aa(lp4219
(dp4220
ag4
aa(lp4221
(dp4222
ag4
aa(lp4223
(dp4224
ag4
aa(lp4225
(dp4226
ag4
aa(lp4227
(dp4228
ag4
aa(lp4229
(dp4230
ag4
aa(lp4231
(dp4232
ag4
aa(lp4233
(dp4234
ag4
aa(lp4235
(dp4236
ag4
aa(lp4237
(dp4238
ag4
aa(lp4239
(dp4240
ag4
aa(lp4241
(dp4242
ag4
aa(lp4243
(dp4244
ag4
aa(lp4245
(dp4246
ag4
aa(lp4247
(dp4248
ag4
aa(lp4249
(dp4250
ag4
aa(lp4251
(dp4252
ag4
aa(lp4253
(dp4254
ag4
aa(lp4255
(dp4256
ag4
aa(lp4257
(dp4258
ag4
aa(lp4259
(dp4260
ag4
aa(lp4261
(dp4262
ag4
aa(lp4263
(dp4264
ag4
aa(lp4265
(dp4266
ag4
aa(lp4267
(dp4268
ag4
aa(lp4269
(dp4270
ag4
aa(lp4271
(dp4272
ag4
aa(lp4273
(dp4274
ag4
aa(lp4275
(dp4276
ag4
aa(lp4277
(dp4278
ag4
aa(lp4279
(dp4280
ag4
aa(lp4281
(dp4282
ag4
aa(lp4283
(dp4284
ag4
aa(lp4285
(dp4286
ag4
aa(lp4287
(dp4288
ag4
aa(lp4289
(dp4290
ag4
aa(lp4291
(dp4292
ag4
aa(lp4293
(dp4294
ag4
aa(lp4295
(dp4296
ag4
aa(lp4297
(dp4298
ag4
aa(lp4299
(dp4300
ag4
aa(lp4301
(dp4302
ag4
aa(lp4303
(dp4304
ag4
aa(lp4305
(dp4306
ag4
aa(lp4307
(dp4308
ag4
aa(lp4309
(dp4310
ag4
aa(lp4311
(dp4312
ag4
aa(lp4313
(dp4314
ag4
aa(lp4315
(dp4316
ag4
aa(lp4317
(dp4318
ag4
aa(lp4319
(dp4320
ag4
aa(lp4321
(dp4322
ag4
aa(lp4323
(dp4324
ag4
aa(lp4325
(dp4326
ag4
aa(lp4327
(dp4328
ag4
aa(lp4329
(dp4330
ag4
aa(lp4331
(dp4332
ag4
aa(lp4333
(dp4334
ag4
aa(lp4335
(dp4336
ag4
aa(lp4337
(dp4338
ag4
aa(lp4339
(dp4340
ag4
aa(lp4341
(dp4342
ag4
aa(lp4343
(dp4344
ag4
aa(lp4345
(dp4346
ag4
aa(lp4347
(dp4348
ag4
aa(lp4349
(dp4350
ag4
aa(lp4351
(dp4352
ag4
aa(lp4353
(dp4354
ag4
aa(lp4355
(dp4356
ag4
aa(lp4357
(dp4358
ag4
aa(lp4359
(dp4360
ag4
aa(lp4361
(dp4362
ag4
aa(lp4363
(dp4364
ag4
aa(lp4365
(dp4366
ag4
aa(lp4367
(dp4368
ag4
aa(lp4369
(dp4370
ag4
aa(lp4371
(dp4372
ag4
aa(lp4373
(dp4374
ag4
aa(lp4375
(dp4376
ag4
aa(lp4377
(dp4378
ag4
aa(lp4379
(dp4380
ag4
aa(lp4381
(dp4382
ag4
aa(lp4383
(dp4384
ag4
aa(lp4385
(dp4386
ag4
aa(lp4387
(dp4388
ag4
aa(lp4389
(dp4390
ag4
aa(lp4391
(dp4392
ag4
aa(lp4393
(dp4394
ag4
aa(lp4395
(dp4396
ag4
aa(lp4397
(dp4398
ag4
aa(lp4399
(dp4400
ag4
aa(lp4401
(dp4402
ag4
aa(lp4403
(dp4404
ag4
aa(lp4405
(dp4406
ag4
aa(lp4407
(dp4408
ag4
aa(lp4409
(dp4410
ag4
aa(lp4411
(dp4412
ag4
aa(lp4413
(dp4414
ag4
aa(lp4415
(dp4416
ag4
aa(lp4417
(dp4418
ag4
aa(lp4419
(dp4420
ag4
aa(lp4421
(dp4422
ag4
aa(lp4423
(dp4424
ag4
aa(lp4425
(dp4426
ag4
aa(lp4427
(dp4428
ag4
aa(lp4429
(dp4430
ag4
aa(lp4431
(dp4432
ag4
aa(lp4433
(dp4434
ag4
aa(lp4435
(dp4436
ag4
aa(lp4437
(dp4438
ag4
aa(lp4439
(dp4440
ag4
aa(lp4441
(dp4442
ag4
aa(lp4443
(dp4444
ag4
aa(lp4445
(dp4446
ag4
aa(lp4447
(dp4448
ag4
aa(lp4449
(dp4450
ag4
aa(lp4451
(dp4452
ag4
aa(lp4453
(dp4454
ag4
aa(lp4455
(dp4456
ag4
aa(lp4457
(dp4458
ag4
aa(lp4459
(dp4460
ag4
aa(lp4461
(dp4462
ag4
aa(lp4463
(dp4464
ag4
aa(lp4465
(dp4466
ag4
aa(lp4467
(dp4468
ag4
aa(lp4469
(dp4470
ag4
aa(lp4471
(dp4472
ag4
aa(lp4473
(dp4474
ag4
aa(lp4475
(dp4476
ag4
aa(lp4477
(dp4478
ag4
aa(lp4479
(dp4480
ag4
aa(lp4481
(dp4482
ag4
aa(lp4483
(dp4484
ag4
aa(lp4485
(dp4486
ag4
aa(lp4487
(dp4488
ag4
aa(lp4489
(dp4490
ag4
aa(lp4491
(dp4492
ag4
aa(lp4493
(dp4494
ag4
aa(lp4495
(dp4496
ag4
aa(lp4497
(dp4498
ag4
aa(lp4499
(dp4500
ag4
aa(lp4501
(dp4502
ag4
aa(lp4503
(dp4504
ag4
aa(lp4505
(dp4506
ag4
aa(lp4507
(dp4508
ag4
aa(lp4509
(dp4510
ag4
aa(lp4511
(dp4512
ag4
aa(lp4513
(dp4514
ag4
aa(lp4515
(dp4516
ag4
aa(lp4517
(dp4518
ag4
aa(lp4519
(dp4520
ag4
aa(lp4521
(dp4522
ag4
aa(lp4523
(dp4524
ag4
aa(lp4525
(dp4526
ag4
aa(lp4527
(dp4528
ag4
aa(lp4529
(dp4530
ag4
aa(lp4531
(dp4532
ag4
aa(lp4533
(dp4534
ag4
aa(lp4535
(dp4536
ag4
aa(lp4537
(dp4538
ag4
aa(lp4539
(dp4540
ag4
aa(lp4541
(dp4542
ag4
aa(lp4543
(dp4544
ag4
aa(lp4545
(dp4546
ag4
aa(lp4547
(dp4548
ag4
aa(lp4549
(dp4550
ag4
aa(lp4551
(dp4552
ag4
aa(lp4553
(dp4554
ag4
aa(lp4555
(dp4556
ag4
aa(lp4557
(dp4558
ag4
aa(lp4559
(dp4560
ag4
aa(lp4561
(dp4562
ag4
aa(lp4563
(dp4564
ag4
aa(lp4565
(dp4566
ag4
aa(lp4567
(dp4568
ag4
aa(lp4569
(dp4570
ag4
aa(lp4571
(dp4572
ag4
aa(lp4573
(dp4574
ag4
aa(lp4575
(dp4576
ag4
aa(lp4577
(dp4578
ag4
aa(lp4579
(dp4580
ag4
aa(lp4581
(dp4582
ag4
aa(lp4583
(dp4584
ag4
aa(lp4585
(dp4586
ag4
aa(lp4587
(dp4588
ag4
aa(lp4589
(dp4590
ag4
aa(lp4591
(dp4592
ag4
aa(lp4593
(dp4594
ag4
aa(lp4595
(dp4596
ag4
aa(lp4597
(dp4598
ag4
aa(lp4599
(dp4600
ag4
aa(lp4601
(dp4602
ag4
aa(lp4603
(dp4604
ag4
aa(lp4605
(dp4606
ag4
aa(lp4607
(dp4608
ag4
aa(lp4609
(dp4610
ag4
aa(lp4611
(dp4612
ag4
aa(lp4613
(dp4614
ag4
aa(lp4615
(dp4616
ag4
aa(lp4617
(dp4618
ag4
aa(lp4619
(dp4620
ag4
aa(lp4621
(dp4622
ag4
aa(lp4623
(dp4624
ag4
aa(lp4625
(dp4626
ag4
aa(lp4627
(dp4628
ag4
aa(lp4629
(dp4630
ag4
aa(lp4631
(dp4632
ag4
aa(lp4633
(dp4634
ag4
aa(lp4635
(dp4636
ag4
aa(lp4637
(dp4638
ag4
aa(lp4639
(dp4640
ag4
aa(lp4641
(dp4642
ag4
aa(lp4643
(dp4644
ag4
aa(lp4645
(dp4646
ag4
aa(lp4647
(dp4648
ag4
aa(lp4649
(dp4650
ag4
aa(lp4651
(dp4652
ag4
aa(lp4653
(dp4654
ag4
aa(lp4655
(dp4656
ag4
aa(lp4657
(dp4658
ag4
aa(lp4659
(dp4660
ag4
aa(lp4661
(dp4662
ag4
aa(lp4663
(dp4664
ag4
aa(lp4665
(dp4666
ag4
aa(lp4667
(dp4668
ag4
aa(lp4669
(dp4670
ag4
aa(lp4671
(dp4672
ag4
aa(lp4673
(dp4674
ag4
aa(lp4675
(dp4676
ag4
aa(lp4677
(dp4678
ag4
aa(lp4679
(dp4680
ag4
aa(lp4681
(dp4682
ag4
aa(lp4683
(dp4684
ag4
aa(lp4685
(dp4686
ag4
aa(lp4687
(dp4688
ag4
aa(lp4689
(dp4690
ag4
aa(lp4691
(dp4692
ag4
aa(lp4693
(dp4694
ag4
aa(lp4695
(dp4696
ag4
aa(lp4697
(dp4698
ag4
aa(lp4699
(dp4700
ag4
aa(lp4701
(dp4702
ag4
aa(lp4703
(dp4704
ag4
aa(lp4705
(dp4706
ag4
aa(lp4707
(dp4708
ag4
aa(lp4709
(dp4710
ag4
aa(lp4711
(dp4712
ag4
aa(lp4713
(dp4714
ag4
aa(lp4715
(dp4716
ag4
aa(lp4717
(dp4718
ag4
aa(lp4719
(dp4720
ag4
aa(lp4721
(dp4722
ag4
aa(lp4723
(dp4724
ag4
aa(lp4725
(dp4726
ag4
aa(lp4727
(dp4728
ag4
aa(lp4729
(dp4730
ag4
aa(lp4731
(dp4732
ag4
aa(lp4733
(dp4734
ag4
aa(lp4735
(dp4736
ag4
aa(lp4737
(dp4738
ag4
aa(lp4739
(dp4740
ag4
aa(lp4741
(dp4742
ag4
aa(lp4743
(dp4744
ag4
aa(lp4745
(dp4746
ag4
aa(lp4747
(dp4748
ag4
aa(lp4749
(dp4750
ag4
aa(lp4751
(dp4752
ag4
aa(lp4753
(dp4754
ag4
aa(lp4755
(dp4756
ag4
aa(lp4757
(dp4758
ag4
aa(lp4759
(dp4760
ag4
aa(lp4761
(dp4762
ag4
aa(lp4763
(dp4764
ag4
aa(lp4765
(dp4766
ag4
aa(lp4767
(dp4768
ag4
aa(lp4769
(dp4770
ag4
aa(lp4771
(dp4772
ag4
aa(lp4773
(dp4774
ag4
aa(lp4775
(dp4776
ag4
aa(lp4777
(dp4778
ag4
aa(lp4779
(dp4780
ag4
aa(lp4781
(dp4782
ag4
aa(lp4783
(dp4784
ag4
aa(lp4785
(dp4786
ag4
aa(lp4787
(dp4788
ag4
aa(lp4789
(dp4790
ag4
aa(lp4791
(dp4792
ag4
aa(lp4793
(dp4794
ag4
aa(lp4795
(dp4796
ag4
aa(lp4797
(dp4798
ag4
aa(lp4799
(dp4800
ag4
aa(lp4801
(dp4802
ag4
aa(lp4803
(dp4804
ag4
aa(lp4805
(dp4806
ag4
aa(lp4807
(dp4808
ag4
aa(lp4809
(dp4810
ag4
aa(lp4811
(dp4812
ag4
aa(lp4813
(dp4814
ag4
aa(lp4815
(dp4816
ag4
aa(lp4817
(dp4818
ag4
aa(lp4819
(dp4820
ag4
aa(lp4821
(dp4822
ag4
aa(lp4823
(dp4824
ag4
aa(lp4825
(dp4826
ag4
aa(lp4827
(dp4828
ag4
aa(lp4829
(dp4830
ag4
aa(lp4831
(dp4832
ag4
aa(lp4833
(dp4834
ag4
aa(lp4835
(dp4836
ag4
aa(lp4837
(dp4838
ag4
aa(lp4839
(dp4840
ag4
aa(lp4841
(dp4842
ag4
aa(lp4843
(dp4844
ag4
aa(lp4845
(dp4846
ag4
aa(lp4847
(dp4848
ag4
aa(lp4849
(dp4850
ag4
aa(lp4851
(dp4852
ag4
aa(lp4853
(dp4854
ag4
aa(lp4855
(dp4856
ag4
aa(lp4857
(dp4858
ag4
aa(lp4859
(dp4860
ag4
aa(lp4861
(dp4862
ag4
aa(lp4863
(dp4864
ag4
aa(lp4865
(dp4866
ag4
aa(lp4867
(dp4868
ag4
aa(lp4869
(dp4870
ag4
aa(lp4871
(dp4872
ag4
aa(lp4873
(dp4874
ag4
aa(lp4875
(dp4876
ag4
aa(lp4877
(dp4878
ag4
aa(lp4879
(dp4880
ag4
aa(lp4881
(dp4882
ag4
aa(lp4883
(dp4884
ag4
aa(lp4885
(dp4886
ag4
aa(lp4887
(dp4888
ag4
aa(lp4889
(dp4890
ag4
aa(lp4891
(dp4892
ag4
aa(lp4893
(dp4894
ag4
aa(lp4895
(dp4896
ag4
aa(lp4897
(dp4898
ag4
aa(lp4899
(dp4900
ag4
aa(lp4901
(dp4902
ag4
aa(lp4903
(dp4904
ag4
aa(lp4905
(dp4906
ag4
aa(lp4907
(dp4908
ag4
aa(lp4909
(dp4910
ag4
aa(lp4911
(dp4912
ag4
aa(lp4913
(dp4914
ag4
aa(lp4915
(dp4916
ag4
aa(lp4917
(dp4918
ag4
aa(lp4919
(dp4920
ag4
aa(lp4921
(dp4922
ag4
aa(lp4923
(dp4924
ag4
aa(lp4925
(dp4926
ag4
aa(lp4927
(dp4928
ag4
aa(lp4929
(dp4930
ag4
aa(lp4931
(dp4932
ag4
aa(lp4933
(dp4934
ag4
aa(lp4935
(dp4936
ag4
aa(lp4937
(dp4938
ag4
aa(lp4939
(dp4940
ag4
aa(lp4941
(dp4942
ag4
aa(lp4943
(dp4944
ag4
aa(lp4945
(dp4946
ag4
aa(lp4947
(dp4948
ag4
aa(lp4949
(dp4950
ag4
aa(lp4951
(dp4952
ag4
aa(lp4953
(dp4954
ag4
aa(lp4955
(dp4956
ag4
aa(lp4957
(dp4958
ag4
aa(lp4959
(dp4960
ag4
aa(lp4961
(dp4962
ag4
aa(lp4963
(dp4964
ag4
aa(lp4965
(dp4966
ag4
aa(lp4967
(dp4968
ag4
aa(lp4969
(dp4970
ag4
aa(lp4971
(dp4972
ag4
aa(lp4973
(dp4974
ag4
aa(lp4975
(dp4976
ag4
aa(lp4977
(dp4978
ag4
aa(lp4979
(dp4980
ag4
aa(lp4981
(dp4982
ag4
aa(lp4983
(dp4984
ag4
aa(lp4985
(dp4986
ag4
aa(lp4987
(dp4988
ag4
aa(lp4989
(dp4990
ag4
aa(lp4991
(dp4992
ag4
aa(lp4993
(dp4994
ag4
aa(lp4995
(dp4996
ag4
aa(lp4997
(dp4998
ag4
aa(lp4999
(dp5000
ag4
aa(lp5001
(dp5002
ag4
aa(lp5003
(dp5004
ag4
aa(lp5005
(dp5006
ag4
aa(lp5007
(dp5008
ag4
aa(lp5009
(dp5010
ag4
aa(lp5011
(dp5012
ag4
aa(lp5013
(dp5014
ag4
aa(lp5015
(dp5016
ag4
aa(lp5017
(dp5018
ag4
aa(lp5019
(dp5020
ag4
aa(lp5021
(dp5022
ag4
aa(lp5023
(dp5024
ag4
aa(lp5025
(dp5026
ag4
aa(lp5027
(dp5028
ag4
aa(lp5029
(dp5030
ag4
aa(lp5031
(dp5032
ag4
aa(lp5033
(dp5034
ag4
aa(lp5035
(dp5036
ag4
aa(lp5037
(dp5038
ag4
aa(lp5039
(dp5040
ag4
aa(lp5041
(dp5042
ag4
aa(lp5043
(dp5044
ag4
aa(lp5045
(dp5046
ag4
aa(lp5047
(dp5048
ag4
aa(lp5049
(dp5050
ag4
aa(lp5051
(dp5052
ag4
aa(lp5053
(dp5054
ag4
aa(lp5055
(dp5056
ag4
aa(lp5057
(dp5058
ag4
aa(lp5059
(dp5060
ag4
aa(lp5061
(dp5062
ag4
aa(lp5063
(dp5064
ag4
aa(lp5065
(dp5066
ag4
aa(lp5067
(dp5068
ag4
aa(lp5069
(dp5070
ag4
aa(lp5071
(dp5072
ag4
aa(lp5073
(dp5074
ag4
aa(lp5075
(dp5076
ag4
aa(lp5077
(dp5078
ag4
aa(lp5079
(dp5080
ag4
aa(lp5081
(dp5082
ag4
aa(lp5083
(dp5084
ag4
aa(lp5085
(dp5086
ag4
aa(lp5087
(dp5088
ag4
aa(lp5089
(dp5090
ag4
aa(lp5091
(dp5092
ag4
aa(lp5093
(dp5094
ag4
aa(lp5095
(dp5096
ag4
aa(lp5097
(dp5098
ag4
aa(lp5099
(dp5100
ag4
aa(lp5101
(dp5102
ag4
aa(lp5103
(dp5104
ag4
aa(lp5105
(dp5106
ag4
aa(lp5107
(dp5108
ag4
aa(lp5109
(dp5110
ag4
aa(lp5111
(dp5112
ag4
aa(lp5113
(dp5114
ag4
aa(lp5115
(dp5116
ag4
aa(lp5117
(dp5118
ag4
aa(lp5119
(dp5120
ag4
aa(lp5121
(dp5122
ag4
aa(lp5123
(dp5124
ag4
aa(lp5125
(dp5126
ag4
aa(lp5127
(dp5128
ag4
aa(lp5129
(dp5130
ag4
aa(lp5131
(dp5132
ag4
aa(lp5133
(dp5134
ag4
aa(lp5135
(dp5136
ag4
aa(lp5137
(dp5138
ag4
aa(lp5139
(dp5140
ag4
aa(lp5141
(dp5142
ag4
aa(lp5143
(dp5144
ag4
aa(lp5145
(dp5146
ag4
aa(lp5147
(dp5148
ag4
aa(lp5149
(dp5150
ag4
aa(lp5151
(dp5152
ag4
aa(lp5153
(dp5154
ag4
aa(lp5155
(dp5156
ag4
aa(lp5157
(dp5158
ag4
aa(lp5159
(dp5160
ag4
aa(lp5161
(dp5162
ag4
aa(lp5163
(dp5164
ag4
aa(lp5165
(dp5166
ag4
aa(lp5167
(dp5168
ag4
aa(lp5169
(dp5170
ag4
aa(lp5171
(dp5172
ag4
aa(lp5173
(dp5174
ag4
aa(lp5175
(dp5176
ag4
aa(lp5177
(dp5178
ag4
aa(lp5179
(dp5180
ag4
aa(lp5181
(dp5182
ag4
aa(lp5183
(dp5184
ag4
aa(lp5185
(dp5186
ag4
aa(lp5187
(dp5188
ag4
aa(lp5189
(dp5190
ag4
aa(lp5191
(dp5192
ag4
aa(lp5193
(dp5194
ag4
aa(lp5195
(dp5196
ag4
aa(lp5197
(dp5198
ag4
aa(lp5199
(dp5200
ag4
aa(lp5201
(dp5202
ag4
aa(lp5203
(dp5204
ag4
aa(lp5205
(dp5206
ag4
aa(lp5207
(dp5208
ag4
aa(lp5209
(dp5210
ag4
aa(lp5211
(dp5212
ag4
aa(lp5213
(dp5214
ag4
aa(lp5215
(dp5216
ag4
aa(lp5217
(dp5218
ag4
aa(lp5219
(dp5220
ag4
aa(lp5221
(dp5222
ag4
aa(lp5223
(dp5224
ag4
aa(lp5225
(dp5226
ag4
aa(lp5227
(dp5228
ag4
aa(lp5229
(dp5230
ag4
aa(lp5231
(dp5232
ag4
aa(lp5233
(dp5234
ag4
aa(lp5235
(dp5236
ag4
aa(lp5237
(dp5238
ag4
aa(lp5239
(dp5240
ag4
aa(lp5241
(dp5242
ag4
aa(lp5243
(dp5244
ag4
aa(lp5245
(dp5246
ag4
aa(lp5247
(dp5248
ag4
aa(lp5249
(dp5250
ag4
aa(lp5251
(dp5252
ag4
aa(lp5253
(dp5254
ag4
aa(lp5255
(dp5256
ag4
aa(lp5257
(dp5258
ag4
aa(lp5259
(dp5260
ag4
aa(lp5261
(dp5262
ag4
aa(lp5263
(dp5264
ag4
aa(lp5265
(dp5266
ag4
aa(lp5267
(dp5268
ag4
aa(lp5269
(dp5270
ag4
aa(lp5271
(dp5272
ag4
aa(lp5273
(dp5274
ag4
aa(lp5275
(dp5276
ag4
aa(lp5277
(dp5278
ag4
aa(lp5279
(dp5280
ag4
aa(lp5281
(dp5282
ag4
aa(lp5283
(dp5284
ag4
aa(lp5285
(dp5286
ag4
aa(lp5287
(dp5288
ag4
aa(lp5289
(dp5290
ag4
aa(lp5291
(dp5292
ag4
aa(lp5293
(dp5294
ag4
aa(lp5295
(dp5296
ag4
aa(lp5297
(dp5298
ag4
aa(lp5299
(dp5300
ag4
aa(lp5301
(dp5302
ag4
aa(lp5303
(dp5304
ag4
aa(lp5305
(dp5306
ag4
aa(lp5307
(dp5308
ag4
aa(lp5309
(dp5310
ag4
aa(lp5311
(dp5312
ag4
aa(lp5313
(dp5314
ag4
aa(lp5315
(dp5316
ag4
aa(lp5317
(dp5318
ag4
aa(lp5319
(dp5320
ag4
aa(lp5321
(dp5322
ag4
aa(lp5323
(dp5324
ag4
aa(lp5325
(dp5326
ag4
aa(lp5327
(dp5328
ag4
aa(lp5329
(dp5330
ag4
aa(lp5331
(dp5332
ag4
aa(lp5333
(dp5334
ag4
aa(lp5335
(dp5336
ag4
aa(lp5337
(dp5338
ag4
aa(lp5339
(dp5340
ag4
aa(lp5341
(dp5342
ag4
aa(lp5343
(dp5344
ag4
aa(lp5345
(dp5346
ag4
aa(lp5347
(dp5348
ag4
aa(lp5349
(dp5350
ag4
aa(lp5351
(dp5352
ag4
aa(lp5353
(dp5354
ag4
aa(lp5355
(dp5356
ag4
aa(lp5357
(dp5358
ag4
aa(lp5359
(dp5360
ag4
aa(lp5361
(dp5362
ag4
aa(lp5363
(dp5364
ag4
aa(lp5365
(dp5366
ag4
aa(lp5367
(dp5368
ag4
aa(lp5369
(dp5370
ag4
aa(lp5371
(dp5372
ag4
aa(lp5373
(dp5374
ag4
aa(lp5375
(dp5376
ag4
aa(lp5377
(dp5378
ag4
aa(lp5379
(dp5380
ag4
aa(lp5381
(dp5382
ag4
aa(lp5383
(dp5384
ag4
aa(lp5385
(dp5386
ag4
aa(lp5387
(dp5388
ag4
aa(lp5389
(dp5390
ag4
aa(lp5391
(dp5392
ag4
aa(lp5393
(dp5394
ag4
aa(lp5395
(dp5396
ag4
aa(lp5397
(dp5398
ag4
aa(lp5399
(dp5400
ag4
aa(lp5401
(dp5402
ag4
aa(lp5403
(dp5404
ag4
aa(lp5405
(dp5406
ag4
aa(lp5407
(dp5408
ag4
aa(lp5409
(dp5410
ag4
aa(lp5411
(dp5412
ag4
aa(lp5413
(dp5414
ag4
aa(lp5415
(dp5416
ag4
aa(lp5417
(dp5418
ag4
aa(lp5419
(dp5420
ag4
aa(lp5421
(dp5422
ag4
aa(lp5423
(dp5424
ag4
aa(lp5425
(dp5426
ag4
aa(lp5427
(dp5428
ag4
aa(lp5429
(dp5430
ag4
aa(lp5431
(dp5432
ag4
aa(lp5433
(dp5434
ag4
aa(lp5435
(dp5436
ag4
aa(lp5437
(dp5438
ag4
aa(lp5439
(dp5440
ag4
aa(lp5441
(dp5442
ag4
aa(lp5443
(dp5444
ag4
aa(lp5445
(dp5446
ag4
aa(lp5447
(dp5448
ag4
aa(lp5449
(dp5450
ag4
aa(lp5451
(dp5452
ag4
aa(lp5453
(dp5454
ag4
aa(lp5455
(dp5456
ag4
aa(lp5457
(dp5458
ag4
aa(lp5459
(dp5460
ag4
aa(lp5461
(dp5462
ag4
aa(lp5463
(dp5464
ag4
aa(lp5465
(dp5466
ag4
aa(lp5467
(dp5468
ag4
aa(lp5469
(dp5470
ag4
aa(lp5471
(dp5472
ag4
aa(lp5473
(dp5474
ag4
aa(lp5475
(dp5476
ag4
aa(lp5477
(dp5478
ag4
aa(lp5479
(dp5480
ag4
aa(lp5481
(dp5482
ag4
aa(lp5483
(dp5484
ag4
aa(lp5485
(dp5486
ag4
aa(lp5487
(dp5488
ag4
aa(lp5489
(dp5490
ag4
aa(lp5491
(dp5492
ag4
aa(lp5493
(dp5494
ag4
aa(lp5495
(dp5496
ag4
aa(lp5497
(dp5498
ag4
aa(lp5499
(dp5500
ag4
aa(lp5501
(dp5502
ag4
aa(lp5503
(dp5504
ag4
aa(lp5505
(dp5506
ag4
aa(lp5507
(dp5508
ag4
aa(lp5509
(dp5510
ag4
aa(lp5511
(dp5512
ag4
aa(lp5513
(dp5514
ag4
aa(lp5515
(dp5516
ag4
aa(lp5517
(dp5518
ag4
aa(lp5519
(dp5520
ag4
aa(lp5521
(dp5522
ag4
aa(lp5523
(dp5524
ag4
aa(lp5525
(dp5526
ag4
aa(lp5527
(dp5528
ag4
aa(lp5529
(dp5530
ag4
aa(lp5531
(dp5532
ag4
aa(lp5533
(dp5534
ag4
aa(lp5535
(dp5536
ag4
aa(lp5537
(dp5538
ag4
aa(lp5539
(dp5540
ag4
aa(lp5541
(dp5542
ag4
aa(lp5543
(dp5544
ag4
aa(lp5545
(dp5546
ag4
aa(lp5547
(dp5548
ag4
aa(lp5549
(dp5550
ag4
aa(lp5551
(dp5552
ag4
aa(lp5553
(dp5554
ag4
aa(lp5555
(dp5556
ag4
aa(lp5557
(dp5558
ag4
aa(lp5559
(dp5560
ag4
aa(lp5561
(dp5562
ag4
aa(lp5563
(dp5564
ag4
aa(lp5565
(dp5566
ag4
aa(lp5567
(dp5568
ag4
aa(lp5569
(dp5570
ag4
aa(lp5571
(dp5572
ag4
aa(lp5573
(dp5574
ag4
aa(lp5575
(dp5576
ag4
aa(lp5577
(dp5578
ag4
aa(lp5579
(dp5580
ag4
aa(lp5581
(dp5582
ag4
aa(lp5583
(dp5584
ag4
aa(lp5585
(dp5586
ag4
aa(lp5587
(dp5588
ag4
aa(lp5589
(dp5590
ag4
aa(lp5591
(dp5592
ag4
aa(lp5593
(dp5594
ag4
aa(lp5595
(dp5596
ag4
aa(lp5597
(dp5598
ag4
aa(lp5599
(dp5600
ag4
aa(lp5601
(dp5602
ag4
aa(lp5603
(dp5604
ag4
aa(lp5605
(dp5606
ag4
aa(lp5607
(dp5608
ag4
aa(lp5609
(dp5610
ag4
aa(lp5611
(dp5612
ag4
aa(lp5613
(dp5614
ag4
aa(lp5615
(dp5616
ag4
aa(lp5617
(dp5618
ag4
aa(lp5619
(dp5620
ag4
aa(lp5621
(dp5622
ag4
aa(lp5623
(dp5624
ag4
aa(lp5625
(dp5626
ag4
aa(lp5627
(dp5628
ag4
aa(lp5629
(dp5630
ag4
aa(lp5631
(dp5632
ag4
aa(lp5633
(dp5634
ag4
aa(lp5635
(dp5636
ag4
aa(lp5637
(dp5638
ag4
aa(lp5639
(dp5640
ag4
aa(lp5641
(dp5642
ag4
aa(lp5643
(dp5644
ag4
aa(lp5645
(dp5646
ag4
aa(lp5647
(dp5648
ag4
aa(lp5649
(dp5650
ag4
aa(lp5651
(dp5652
ag4
aa(lp5653
(dp5654
ag4
aa(lp5655
(dp5656
ag4
aa(lp5657
(dp5658
ag4
aa(lp5659
(dp5660
ag4
aa(lp5661
(dp5662
ag4
aa(lp5663
(dp5664
ag4
aa(lp5665
(dp5666
ag4
aa(lp5667
(dp5668
ag4
aa(lp5669
(dp5670
ag4
aa(lp5671
(dp5672
ag4
aa(lp5673
(dp5674
ag4
aa(lp5675
(dp5676
ag4
aa(lp5677
(dp5678
ag4
aa(lp5679
(dp5680
ag4
aa(lp5681
(dp5682
ag4
aa(lp5683
(dp5684
ag4
aa(lp5685
(dp5686
ag4
aa(lp5687
(dp5688
ag4
aa(lp5689
(dp5690
ag4
aa(lp5691
(dp5692
ag4
aa(lp5693
(dp5694
ag4
aa(lp5695
(dp5696
ag4
aa(lp5697
(dp5698
ag4
aa(lp5699
(dp5700
ag4
aa(lp5701
(dp5702
ag4
aa(lp5703
(dp5704
ag4
aa(lp5705
(dp5706
ag4
aa(lp5707
(dp5708
ag4
aa(lp5709
(dp5710
ag4
aa(lp5711
(dp5712
ag4
aa(lp5713
(dp5714
ag4
aa(lp5715
(dp5716
ag4
aa(lp5717
(dp5718
ag4
aa(lp5719
(dp5720
ag4
aa(lp5721
(dp5722
ag4
aa(lp5723
(dp5724
ag4
aa(lp5725
(dp5726
ag4
aa(lp5727
(dp5728
ag4
aa(lp5729
(dp5730
ag4
aa(lp5731
(dp5732
ag4
aa(lp5733
(dp5734
ag4
aa(lp5735
(dp5736
ag4
aa(lp5737
(dp5738
ag4
aa(lp5739
(dp5740
ag4
aa(lp5741
(dp5742
ag4
aa(lp5743
(dp5744
ag4
aa(lp5745
(dp5746
ag4
aa(lp5747
(dp5748
ag4
aa(lp5749
(dp5750
ag4
aa(lp5751
(dp5752
ag4
aa(lp5753
(dp5754
ag4
aa(lp5755
(dp5756
ag4
aa(lp5757
(dp5758
ag4
aa(lp5759
(dp5760
ag4
aa(lp5761
(dp5762
ag4
aa(lp5763
(dp5764
ag4
aa(lp5765
(dp5766
ag4
aa(lp5767
(dp5768
ag4
aa(lp5769
(dp5770
ag4
aa(lp5771
(dp5772
ag4
aa(lp5773
(dp5774
ag4
aa(lp5775
(dp5776
ag4
aa(lp5777
(dp5778
ag4
aa(lp5779
(dp5780
ag4
aa(lp5781
(dp5782
ag4
aa(lp5783
(dp5784
ag4
aa(lp5785
(dp5786
ag4
aa(lp5787
(dp5788
ag4
aa(lp5789
(dp5790
ag4
aa(lp5791
(dp5792
ag4
aa(lp5793
(dp5794
ag4
aa(lp5795
(dp5796
ag4
aa(lp5797
(dp5798
ag4
aa(lp5799
(dp5800
ag4
aa(lp5801
(dp5802
ag4
aa(lp5803
(dp5804
ag4
aa(lp5805
(dp5806
ag4
aa(lp5807
(dp5808
ag4
aa(lp5809
(dp5810
ag4
aa(lp5811
(dp5812
ag4
aa(lp5813
(dp5814
ag4
aa(lp5815
(dp5816
ag4
aa(lp5817
(dp5818
ag4
aa(lp5819
(dp5820
ag4
aa(lp5821
(dp5822
ag4
aa(lp5823
(dp5824
ag4
aa(lp5825
(dp5826
ag4
aa(lp5827
(dp5828
ag4
aa(lp5829
(dp5830
ag4
aa(lp5831
(dp5832
ag4
aa(lp5833
(dp5834
ag4
aa(lp5835
(dp5836
ag4
aa(lp5837
(dp5838
ag4
aa(lp5839
(dp5840
ag4
aa(lp5841
(dp5842
ag4
aa(lp5843
(dp5844
ag4
aa(lp5845
(dp5846
ag4
aa(lp5847
(dp5848
ag4
aa(lp5849
(dp5850
ag4
aa(lp5851
(dp5852
ag4
aa(lp5853
(dp5854
ag4
aa(lp5855
(dp5856
ag4
aa(lp5857
(dp5858
ag4
aa(lp5859
(dp5860
ag4
aa(lp5861
(dp5862
ag4
aa(lp5863
(dp5864
ag4
aa(lp5865
(dp5866
ag4
aa(lp5867
(dp5868
ag4
aa(lp5869
(dp5870
ag4
aa(lp5871
(dp5872
ag4
aa(lp5873
(dp5874
ag4
aa(lp5875
(dp5876
ag4
aa(lp5877
(dp5878
ag4
aa(lp5879
(dp5880
ag4
aa(lp5881
(dp5882
ag4
aa(lp5883
(dp5884
ag4
aa(lp5885
(dp5886
ag4
aa(lp5887
(dp5888
ag4
aa(lp5889
(dp5890
ag4
aa(lp5891
(dp5892
ag4
aa(lp5893
(dp5894
ag4
aa(lp5895
(dp5896
ag4
aa(lp5897
(dp5898
ag4
aa(lp5899
(dp5900
ag4
aa(lp5901
(dp5902
ag4
aa(lp5903
(dp5904
ag4
aa(lp5905
(dp5906
ag4
aa(lp5907
(dp5908
ag4
aa(lp5909
(dp5910
ag4
aa(lp5911
(dp5912
ag4
aa(lp5913
(dp5914
ag4
aa(lp5915
(dp5916
ag4
aa(lp5917
(dp5918
ag4
aa(lp5919
(dp5920
ag4
aa(lp5921
(dp5922
ag4
aa(lp5923
(dp5924
ag4
aa(lp5925
(dp5926
ag4
aa(lp5927
(dp5928
ag4
aa(lp5929
(dp5930
ag4
aa(lp5931
(dp5932
ag4
aa(lp5933
(dp5934
ag4
aa(lp5935
(dp5936
ag4
aa(lp5937
(dp5938
ag4
aa(lp5939
(dp5940
ag4
aa(lp5941
(dp5942
ag4
aa(lp5943
(dp5944
ag4
aa(lp5945
(dp5946
ag4
aa(lp5947
(dp5948
ag4
aa(lp5949
(dp5950
ag4
aa(lp5951
(dp5952
ag4
aa(lp5953
(dp5954
ag4
aa(lp5955
(dp5956
ag4
aa(lp5957
(dp5958
ag4
aa(lp5959
(dp5960
ag4
aa(lp5961
(dp5962
ag4
aa(lp5963
(dp5964
ag4
aa(lp5965
(dp5966
ag4
aa(lp5967
(dp5968
ag4
aa(lp5969
(dp5970
ag4
aa(lp5971
(dp5972
ag4
aa(lp5973
(dp5974
ag4
aa(lp5975
(dp5976
ag4
aa(lp5977
(dp5978
ag4
aa(lp5979
(dp5980
ag4
aa(lp5981
(dp5982
ag4
aa(lp5983
(dp5984
ag4
aa(lp5985
(dp5986
ag4
aa(lp5987
(dp5988
ag4
aa(lp5989
(dp5990
ag4
aa(lp5991
(dp5992
ag4
aa(lp5993
(dp5994
ag4
aa(lp5995
(dp5996
ag4
aa(lp5997
(dp5998
ag4
aa(lp5999
(dp6000
ag4
aa(lp6001
(dp6002
ag4
aa(lp6003
(dp6004
ag4
aa(lp6005
(dp6006
ag4
aa(lp6007
(dp6008
ag4
aa(lp6009
(dp6010
ag4
aa(lp6011
(dp6012
ag4
aa(lp6013
(dp6014
ag4
aa(lp6015
(dp6016
ag4
aa(lp6017
(dp6018
ag4
aa(lp6019
(dp6020
ag4
aa(lp6021
(dp6022
ag4
aa(lp6023
(dp6024
ag4
aa(lp6025
(dp6026
ag4
aa(lp6027
(dp6028
ag4
aa(lp6029
(dp6030
ag4
aa(lp6031
(dp6032
ag4
aa(lp6033
(dp6034
ag4
aa(lp6035
(dp6036
ag4
aa(lp6037
(dp6038
ag4
aa(lp6039
(dp6040
ag4
aa(lp6041
(dp6042
ag4
aa(lp6043
(dp6044
ag4
aa(lp6045
(dp6046
ag4
aa(lp6047
(dp6048
ag4
aa(lp6049
(dp6050
ag4
aa(lp6051
(dp6052
ag4
aa(lp6053
(dp6054
ag4
aa(lp6055
(dp6056
ag4
aa(lp6057
(dp6058
ag4
aa(lp6059
(dp6060
ag4
aa(lp6061
(dp6062
ag4
aa(lp6063
(dp6064
ag4
aa(lp6065
(dp6066
ag4
aa(lp6067
(dp6068
ag4
aa(lp6069
(dp6070
ag4
aa(lp6071
(dp6072
ag4
aa(lp6073
(dp6074
ag4
aa(lp6075
(dp6076
ag4
aa(lp6077
(dp6078
ag4
aa(lp6079
(dp6080
ag4
aa(lp6081
(dp6082
ag4
aa(lp6083
(dp6084
ag4
aa(lp6085
(dp6086
ag4
aa(lp6087
(dp6088
ag4
aa(lp6089
(dp6090
ag4
aa(lp6091
(dp6092
ag4
aa(lp6093
(dp6094
ag4
aa(lp6095
(dp6096
ag4
aa(lp6097
(dp6098
ag4
aa(lp6099
(dp6100
ag4
aa(lp6101
(dp6102
ag4
aa(lp6103
(dp6104
ag4
aa(lp6105
(dp6106
ag4
aa(lp6107
(dp6108
ag4
aa(lp6109
(dp6110
ag4
aa(lp6111
(dp6112
ag4
aa(lp6113
(dp6114
ag4
aa(lp6115
(dp6116
ag4
aa(lp6117
(dp6118
ag4
aa(lp6119
(dp6120
ag4
aa(lp6121
(dp6122
ag4
aa(lp6123
(dp6124
ag4
aa(lp6125
(dp6126
ag4
aa(lp6127
(dp6128
ag4
aa(lp6129
(dp6130
ag4
aa(lp6131
(dp6132
ag4
aa(lp6133
(dp6134
ag4
aa(lp6135
(dp6136
ag4
aa(lp6137
(dp6138
ag4
aa(lp6139
(dp6140
ag4
aa(lp6141
(dp6142
ag4
aa(lp6143
(dp6144
ag4
aa(lp6145
(dp6146
ag4
aa(lp6147
(dp6148
ag4
aa(lp6149
(dp6150
ag4
aa(lp6151
(dp6152
ag4
aa(lp6153
(dp6154
ag4
aa(lp6155
(dp6156
ag4
aa(lp6157
(dp6158
ag4
aa(lp6159
(dp6160
ag4
aa(lp6161
(dp6162
ag4
aa(lp6163
(dp6164
ag4
aa(lp6165
(dp6166
ag4
aa(lp6167
(dp6168
ag4
aa(lp6169
(dp6170
ag4
aa(lp6171
(dp6172
ag4
aa(lp6173
(dp6174
ag4
aa(lp6175
(dp6176
ag4
aa(lp6177
(dp6178
ag4
aa(lp6179
(dp6180
ag4
aa(lp6181
(dp6182
ag4
aa(lp6183
(dp6184
ag4
aa(lp6185
(dp6186
ag4
aa(lp6187
(dp6188
ag4
aa(lp6189
(dp6190
ag4
aa(lp6191
(dp6192
ag4
aa(lp6193
(dp6194
ag4
aa(lp6195
(dp6196
ag4
aa(lp6197
(dp6198
ag4
aa(lp6199
(dp6200
ag4
aa(lp6201
(dp6202
ag4
aa(lp6203
(dp6204
ag4
aa(lp6205
(dp6206
ag4
aa(lp6207
(dp6208
ag4
aa(lp6209
(dp6210
ag4
aa(lp6211
(dp6212
ag4
aa(lp6213
(dp6214
ag4
aa(lp6215
(dp6216
ag4
aa(lp6217
(dp6218
ag4
aa(lp6219
(dp6220
ag4
aa(lp6221
(dp6222
ag4
aa(lp6223
(dp6224
ag4
aa(lp6225
(dp6226
ag4
aa(lp6227
(dp6228
ag4
aa(lp6229
(dp6230
ag4
aa(lp6231
(dp6232
ag4
aa(lp6233
(dp6234
ag4
aa(lp6235
(dp6236
ag4
aa(lp6237
(dp6238
ag4
aa(lp6239
(dp6240
ag4
aa(lp6241
(dp6242
ag4
aa(lp6243
(dp6244
ag4
aa(lp6245
(dp6246
ag4
aa(lp6247
(dp6248
ag4
aa(lp6249
(dp6250
ag4
aa(lp6251
(dp6252
ag4
aa(lp6253
(dp6254
ag4
aa(lp6255
(dp6256
ag4
aa(lp6257
(dp6258
ag4
aa(lp6259
(dp6260
ag4
aa(lp6261
(dp6262
ag4
aa(lp6263
(dp6264
ag4
aa(lp6265
(dp6266
ag4
aa(lp6267
(dp6268
ag4
aa(lp6269
(dp6270
ag4
aa(lp6271
(dp6272
ag4
aa(lp6273
(dp6274
ag4
aa(lp6275
(dp6276
ag4
aa(lp6277
(dp6278
ag4
aa(lp6279
(dp6280
ag4
aa(lp6281
(dp6282
ag4
aa(lp6283
(dp6284
ag4
aa(lp6285
(dp6286
ag4
aa(lp6287
(dp6288
ag4
aa(lp6289
(dp6290
ag4
aa(lp6291
(dp6292
ag4
aa(lp6293
(dp6294
ag4
aa(lp6295
(dp6296
ag4
aa(lp6297
(dp6298
ag4
aa(lp6299
(dp6300
ag4
aa(lp6301
(dp6302
ag4
aa(lp6303
(dp6304
ag4
aa(lp6305
(dp6306
ag4
aa(lp6307
(dp6308
ag4
aa(lp6309
(dp6310
ag4
aa(lp6311
(dp6312
ag4
aa(lp6313
(dp6314
ag4
aa(lp6315
(dp6316
ag4
aa(lp6317
(dp6318
ag4
aa(lp6319
(dp6320
ag4
aa(lp6321
(dp6322
ag4
aa(lp6323
(dp6324
ag4
aa(lp6325
(dp6326
ag4
aa(lp6327
(dp6328
ag4
aa(lp6329
(dp6330
ag4
aa(lp6331
(dp6332
ag4
aa(lp6333
(dp6334
ag4
aa(lp6335
(dp6336
ag4
aa(lp6337
(dp6338
ag4
aa(lp6339
(dp6340
ag4
aa(lp6341
(dp6342
ag4
aa(lp6343
(dp6344
ag4
aa(lp6345
(dp6346
ag4
aa(lp6347
(dp6348
ag4
aa(lp6349
(dp6350
ag4
aa(lp6351
(dp6352
ag4
aa(lp6353
(dp6354
ag4
aa(lp6355
(dp6356
ag4
aa(lp6357
(dp6358
ag4
aa(lp6359
(dp6360
ag4
aa(lp6361
(dp6362
ag4
aa(lp6363
(dp6364
ag4
aa(lp6365
(dp6366
ag4
aa(lp6367
(dp6368
ag4
aa(lp6369
(dp6370
ag4
aa(lp6371
(dp6372
ag4
aa(lp6373
(dp6374
ag4
aa(lp6375
(dp6376
ag4
aa(lp6377
(dp6378
ag4
aa(lp6379
(dp6380
ag4
aa(lp6381
(dp6382
ag4
aa(lp6383
(dp6384
ag4
aa(lp6385
(dp6386
ag4
aa(lp6387
(dp6388
ag4
aa(lp6389
(dp6390
ag4
aa(lp6391
(dp6392
ag4
aa(lp6393
(dp6394
ag4
aa(lp6395
(dp6396
ag4
aa(lp6397
(dp6398
ag4
aa(lp6399
(dp6400
ag4
aa(lp6401
(dp6402
ag4
aa(lp6403
(dp6404
ag4
aa(lp6405
(dp6406
ag4
aa(lp6407
(dp6408
ag4
aa(lp6409
(dp6410
ag4
aa(lp6411
(dp6412
ag4
aa(lp6413
(dp6414
ag4
aa(lp6415
(dp6416
ag4
aa(lp6417
(dp6418
ag4
aa(lp6419
(dp6420
ag4
aa(lp6421
(dp6422
ag4
aa(lp6423
(dp6424
ag4
aa(lp6425
(dp6426
ag4
aa(lp6427
(dp6428
ag4
aa(lp6429
(dp6430
ag4
aa(lp6431
(dp6432
ag4
aa(lp6433
(dp6434
ag4
aa(lp6435
(dp6436
ag4
aa(lp6437
(dp6438
ag4
aa(lp6439
(dp6440
ag4
aa(lp6441
(dp6442
ag4
aa(lp6443
(dp6444
ag4
aa(lp6445
(dp6446
ag4
aa(lp6447
(dp6448
ag4
aa(lp6449
(dp6450
ag4
aa(lp6451
(dp6452
ag4
aa(lp6453
(dp6454
ag4
aa(lp6455
(dp6456
ag4
aa(lp6457
(dp6458
ag4
aa(lp6459
(dp6460
ag4
aa(lp6461
(dp6462
ag4
aa(lp6463
(dp6464
ag4
aa(lp6465
(dp6466
ag4
aa(lp6467
(dp6468
ag4
aa(lp6469
(dp6470
ag4
aa(lp6471
(dp6472
ag4
aa(lp6473
(dp6474
ag4
aa(lp6475
(dp6476
ag4
aa(lp6477
(dp6478
ag4
aa(lp6479
(dp6480
ag4
aa(lp6481
(dp6482
ag4
aa(lp6483
(dp6484
ag4
aa(lp6485
(dp6486
ag4
aa(lp6487
(dp6488
ag4
aa(lp6489
(dp6490
ag4
aa(lp6491
(dp6492
ag4
aa(lp6493
(dp6494
ag4
aa(lp6495
(dp6496
ag4
aa(lp6497
(dp6498
ag4
aa(lp6499
(dp6500
ag4
aa(lp6501
(dp6502
ag4
aa(lp6503
(dp6504
ag4
aa(lp6505
(dp6506
ag4
aa(lp6507
(dp6508
ag4
aa(lp6509
(dp6510
ag4
aa(lp6511
(dp6512
ag4
aa(lp6513
(dp6514
ag4
aa(lp6515
(dp6516
ag4
aa(lp6517
(dp6518
ag4
aa(lp6519
(dp6520
ag4
aa(lp6521
(dp6522
ag4
aa(lp6523
(dp6524
ag4
aa(lp6525
(dp6526
ag4
aa(lp6527
(dp6528
ag4
aa(lp6529
(dp6530
ag4
aa(lp6531
(dp6532
ag4
aa(lp6533
(dp6534
ag4
aa(lp6535
(dp6536
ag4
aa(lp6537
(dp6538
ag4
aa(lp6539
(dp6540
ag4
aa(lp6541
(dp6542
ag4
aa(lp6543
(dp6544
ag4
aa(lp6545
(dp6546
ag4
aa(lp6547
(dp6548
ag4
aa(lp6549
(dp6550
ag4
aa(lp6551
(dp6552
ag4
aa(lp6553
(dp6554
ag4
aa(lp6555
(dp6556
ag4
aa(lp6557
(dp6558
ag4
aa(lp6559
(dp6560
ag4
aa(lp6561
(dp6562
ag4
aa(lp6563
(dp6564
ag4
aa(lp6565
(dp6566
ag4
aa(lp6567
(dp6568
ag4
aa(lp6569
(dp6570
ag4
aa(lp6571
(dp6572
ag4
aa(lp6573
(dp6574
ag4
aa(lp6575
(dp6576
ag4
aa(lp6577
(dp6578
ag4
aa(lp6579
(dp6580
ag4
aa(lp6581
(dp6582
ag4
aa(lp6583
(dp6584
ag4
aa(lp6585
(dp6586
ag4
aa(lp6587
(dp6588
ag4
aa(lp6589
(dp6590
ag4
aa(lp6591
(dp6592
ag4
aa(lp6593
(dp6594
ag4
aa(lp6595
(dp6596
ag4
aa(lp6597
(dp6598
ag4
aa(lp6599
(dp6600
ag4
aa(lp6601
(dp6602
ag4
aa(lp6603
(dp6604
ag4
aa(lp6605
(dp6606
ag4
aa(lp6607
(dp6608
ag4
aa(lp6609
(dp6610
ag4
aa(lp6611
(dp6612
ag4
aa(lp6613
(dp6614
ag4
aa(lp6615
(dp6616
ag4
aa(lp6617
(dp6618
ag4
aa(lp6619
(dp6620
ag4
aa(lp6621
(dp6622
ag4
aa(lp6623
(dp6624
ag4
aa(lp6625
(dp6626
ag4
aa(lp6627
(dp6628
ag4
aa(lp6629
(dp6630
ag4
aa(lp6631
(dp6632
ag4
aa(lp6633
(dp6634
ag4
aa(lp6635
(dp6636
ag4
aa(lp6637
(dp6638
ag4
aa(lp6639
(dp6640
ag4
aa(lp6641
(dp6642
ag4
aa(lp6643
(dp6644
ag4
aa(lp6645
(dp6646
ag4
aa(lp6647
(dp6648
ag4
aa(lp6649
(dp6650
ag4
aa(lp6651
(dp6652
ag4
aa(lp6653
(dp6654
ag4
aa(lp6655
(dp6656
ag4
aa(lp6657
(dp6658
ag4
aa(lp6659
(dp6660
ag4
aa(lp6661
(dp6662
ag4
aa(lp6663
(dp6664
ag4
aa(lp6665
(dp6666
ag4
aa(lp6667
(dp6668
ag4
aa(lp6669
(dp6670
ag4
aa(lp6671
(dp6672
ag4
aa(lp6673
(dp6674
ag4
aa(lp6675
(dp6676
ag4
aa(lp6677
(dp6678
ag4
aa(lp6679
(dp6680
ag4
aa(lp6681
(dp6682
ag4
aa(lp6683
(dp6684
ag4
aa(lp6685
(dp6686
ag4
aa(lp6687
(dp6688
ag4
aa(lp6689
(dp6690
ag4
aa(lp6691
(dp6692
ag4
aa(lp6693
(dp6694
ag4
aa(lp6695
(dp6696
ag4
aa(lp6697
(dp6698
ag4
aa(lp6699
(dp6700
ag4
aa(lp6701
(dp6702
ag4
aa(lp6703
(dp6704
ag4
aa(lp6705
(dp6706
ag4
aa(lp6707
(dp6708
ag4
aa(lp6709
(dp6710
ag4
aa(lp6711
(dp6712
ag4
aa(lp6713
(dp6714
ag4
aa(lp6715
(dp6716
ag4
aa(lp6717
(dp6718
ag4
aa(lp6719
(dp6720
ag4
aa(lp6721
(dp6722
ag4
aa(lp6723
(dp6724
ag4
aa(lp6725
(dp6726
ag4
aa(lp6727
(dp6728
ag4
aa(lp6729
(dp6730
ag4
aa(lp6731
(dp6732
ag4
aa(lp6733
(dp6734
ag4
aa(lp6735
(dp6736
ag4
aa(lp6737
(dp6738
ag4
aa(lp6739
(dp6740
ag4
aa(lp6741
(dp6742
ag4
aa(lp6743
(dp6744
ag4
aa(lp6745
(dp6746
ag4
aa(lp6747
(dp6748
ag4
aa(lp6749
(dp6750
ag4
aa(lp6751
(dp6752
ag4
aa(lp6753
(dp6754
ag4
aa(lp6755
(dp6756
ag4
aa(lp6757
(dp6758
ag4
aa(lp6759
(dp6760
ag4
aa(lp6761
(dp6762
ag4
aa(lp6763
(dp6764
ag4
aa(lp6765
(dp6766
ag4
aa(lp6767
(dp6768
ag4
aa(lp6769
(dp6770
ag4
aa(lp6771
(dp6772
ag4
aa(lp6773
(dp6774
ag4
aa(lp6775
(dp6776
ag4
aa(lp6777
(dp6778
ag4
aa(lp6779
(dp6780
ag4
aa(lp6781
(dp6782
ag4
aa(lp6783
(dp6784
ag4
aa(lp6785
(dp6786
ag4
aa(lp6787
(dp6788
ag4
aa(lp6789
(dp6790
ag4
aa(lp6791
(dp6792
ag4
aa(lp6793
(dp6794
ag4
aa(lp6795
(dp6796
ag4
aa(lp6797
(dp6798
ag4
aa(lp6799
(dp6800
ag4
aa(lp6801
(dp6802
ag4
aa(lp6803
(dp6804
ag4
aa(lp6805
(dp6806
ag4
aa(lp6807
(dp6808
ag4
aa(lp6809
(dp6810
ag4
aa(lp6811
(dp6812
ag4
aa(lp6813
(dp6814
ag4
aa(lp6815
(dp6816
ag4
aa(lp6817
(dp6818
ag4
aa(lp6819
(dp6820
ag4
aa(lp6821
(dp6822
ag4
aa(lp6823
(dp6824
ag4
aa(lp6825
(dp6826
ag4
aa(lp6827
(dp6828
ag4
aa(lp6829
(dp6830
ag4
aa(lp6831
(dp6832
ag4
aa(lp6833
(dp6834
ag4
aa(lp6835
(dp6836
ag4
aa(lp6837
(dp6838
ag4
aa(lp6839
(dp6840
ag4
aa(lp6841
(dp6842
ag4
aa(lp6843
(dp6844
ag4
aa(lp6845
(dp6846
ag4
aa(lp6847
(dp6848
ag4
aa(lp6849
(dp6850
ag4
aa(lp6851
(dp6852
ag4
aa(lp6853
(dp6854
ag4
aa(lp6855
(dp6856
ag4
aa(lp6857
(dp6858
ag4
aa(lp6859
(dp6860
ag4
aa(lp6861
(dp6862
ag4
aa(lp6863
(dp6864
ag4
aa(lp6865
(dp6866
ag4
aa(lp6867
(dp6868
ag4
aa(lp6869
(dp6870
ag4
aa(lp6871
(dp6872
ag4
aa(lp6873
(dp6874
ag4
aa(lp6875
(dp6876
ag4
aa(lp6877
(dp6878
ag4
aa(lp6879
(dp6880
ag4
aa(lp6881
(dp6882
ag4
aa(lp6883
(dp6884
ag4
aa(lp6885
(dp6886
ag4
aa(lp6887
(dp6888
ag4
aa(lp6889
(dp6890
ag4
aa(lp6891
(dp6892
ag4
aa(lp6893
(dp6894
ag4
aa(lp6895
(dp6896
ag4
aa(lp6897
(dp6898
ag4
aa(lp6899
(dp6900
ag4
aa(lp6901
(dp6902
ag4
aa(lp6903
(dp6904
ag4
aa(lp6905
(dp6906
ag4
aa(lp6907
(dp6908
ag4
aa(lp6909
(dp6910
ag4
aa(lp6911
(dp6912
ag4
aa(lp6913
(dp6914
ag4
aa(lp6915
(dp6916
ag4
aa(lp6917
(dp6918
ag4
aa(lp6919
(dp6920
ag4
aa(lp6921
(dp6922
ag4
aa(lp6923
(dp6924
ag4
aa(lp6925
(dp6926
ag4
aa(lp6927
(dp6928
ag4
aa(lp6929
(dp6930
ag4
aa(lp6931
(dp6932
ag4
aa(lp6933
(dp6934
ag4
aa(lp6935
(dp6936
ag4
aa(lp6937
(dp6938
ag4
aa(lp6939
(dp6940
ag4
aa(lp6941
(dp6942
ag4
aa(lp6943
(dp6944
ag4
aa(lp6945
(dp6946
ag4
aa(lp6947
(dp6948
ag4
aa(lp6949
(dp6950
ag4
aa(lp6951
(dp6952
ag4
aa(lp6953
(dp6954
ag4
aa(lp6955
(dp6956
ag4
aa(lp6957
(dp6958
ag4
aa(lp6959
(dp6960
ag4
aa(lp6961
(dp6962
ag4
aa(lp6963
(dp6964
ag4
aa(lp6965
(dp6966
ag4
aa(lp6967
(dp6968
ag4
aa(lp6969
(dp6970
ag4
aa(lp6971
(dp6972
ag4
aa(lp6973
(dp6974
ag4
aa(lp6975
(dp6976
ag4
aa(lp6977
(dp6978
ag4
aa(lp6979
(dp6980
ag4
aa(lp6981
(dp6982
ag4
aa(lp6983
(dp6984
ag4
aa(lp6985
(dp6986
ag4
aa(lp6987
(dp6988
ag4
aa(lp6989
(dp6990
ag4
aa(lp6991
(dp6992
ag4
aa(lp6993
(dp6994
ag4
aa(lp6995
(dp6996
ag4
aa(lp6997
(dp6998
ag4
aa(lp6999
(dp7000
ag4
aa(lp7001
(dp7002
ag4
aa(lp7003
(dp7004
ag4
aa(lp7005
(dp7006
ag4
aa(lp7007
(dp7008
ag4
aa(lp7009
(dp7010
ag4
aa(lp7011
(dp7012
ag4
aa(lp7013
(dp7014
ag4
aa(lp7015
(dp7016
ag4
aa(lp7017
(dp7018
ag4
aa(lp7019
(dp7020
ag4
aa(lp7021
(dp7022
ag4
aa(lp7023
(dp7024
ag4
aa(lp7025
(dp7026
ag4
aa(lp7027
(dp7028
ag4
aa(lp7029
(dp7030
ag4
aa(lp7031
(dp7032
ag4
aa(lp7033
(dp7034
ag4
aa(lp7035
(dp7036
ag4
aa(lp7037
(dp7038
ag4
aa(lp7039
(dp7040
ag4
aa(lp7041
(dp7042
ag4
aa(lp7043
(dp7044
ag4
aa(lp7045
(dp7046
ag4
aa(lp7047
(dp7048
ag4
aa(lp7049
(dp7050
ag4
aa(lp7051
(dp7052
ag4
aa(lp7053
(dp7054
ag4
aa(lp7055
(dp7056
ag4
aa(lp7057
(dp7058
ag4
aa(lp7059
(dp7060
ag4
aa(lp7061
(dp7062
ag4
aa(lp7063
(dp7064
ag4
aa(lp7065
(dp7066
ag4
aa(lp7067
(dp7068
ag4
aa(lp7069
(dp7070
ag4
aa(lp7071
(dp7072
ag4
aa(lp7073
(dp7074
ag4
aa(lp7075
(dp7076
ag4
aa(lp7077
(dp7078
ag4
aa(lp7079
(dp7080
ag4
aa(lp7081
(dp7082
ag4
aa(lp7083
(dp7084
ag4
aa(lp7085
(dp7086
ag4
aa(lp7087
(dp7088
ag4
aa(lp7089
(dp7090
ag4
aa(lp7091
(dp7092
ag4
aa(lp7093
(dp7094
ag4
aa(lp7095
(dp7096
ag4
aa(lp7097
(dp7098
ag4
aa(lp7099
(dp7100
ag4
aa(lp7101
(dp7102
ag4
aa(lp7103
(dp7104
ag4
aa(lp7105
(dp7106
ag4
aa(lp7107
(dp7108
ag4
aa(lp7109
(dp7110
ag4
aa(lp7111
(dp7112
ag4
aa(lp7113
(dp7114
ag4
aa(lp7115
(dp7116
ag4
aa(lp7117
(dp7118
ag4
aa(lp7119
(dp7120
ag4
aa(lp7121
(dp7122
ag4
aa(lp7123
(dp7124
ag4
aa(lp7125
(dp7126
ag4
aa(lp7127
(dp7128
ag4
aa(lp7129
(dp7130
ag4
aa(lp7131
(dp7132
ag4
aa(lp7133
(dp7134
ag4
aa(lp7135
(dp7136
ag4
aa(lp7137
(dp7138
ag4
aa(lp7139
(dp7140
ag4
aa(lp7141
(dp7142
ag4
aa(lp7143
(dp7144
ag4
aa(lp7145
(dp7146
ag4
aa(lp7147
(dp7148
ag4
aa(lp7149
(dp7150
ag4
aa(lp7151
(dp7152
ag4
aa(lp7153
(dp7154
ag4
aa(lp7155
(dp7156
ag4
aa(lp7157
(dp7158
ag4
aa(lp7159
(dp7160
ag4
aa(lp7161
(dp7162
ag4
aa(lp7163
(dp7164
ag4
aa(lp7165
(dp7166
ag4
aa(lp7167
(dp7168
ag4
aa(lp7169
(dp7170
ag4
aa(lp7171
(dp7172
ag4
aa(lp7173
(dp7174
ag4
aa(lp7175
(dp7176
ag4
aa(lp7177
(dp7178
ag4
aa(lp7179
(dp7180
ag4
aa(lp7181
(dp7182
ag4
aa(lp7183
(dp7184
ag4
aa(lp7185
(dp7186
ag4
aa(lp7187
(dp7188
ag4
aa(lp7189
(dp7190
ag4
aa(lp7191
(dp7192
ag4
aa(lp7193
(dp7194
ag4
aa(lp7195
(dp7196
ag4
aa(lp7197
(dp7198
ag4
aa(lp7199
(dp7200
ag4
aa(lp7201
(dp7202
ag4
aa(lp7203
(dp7204
ag4
aa(lp7205
(dp7206
ag4
aa(lp7207
(dp7208
ag4
aa(lp7209
(dp7210
ag4
aa(lp7211
(dp7212
ag4
aa(lp7213
(dp7214
ag4
aa(lp7215
(dp7216
ag4
aa(lp7217
(dp7218
ag4
aa(lp7219
(dp7220
ag4
aa(lp7221
(dp7222
ag4
aa(lp7223
(dp7224
ag4
aa(lp7225
(dp7226
ag4
aa(lp7227
(dp7228
ag4
aa(lp7229
(dp7230
ag4
aa(lp7231
(dp7232
ag4
aa(lp7233
(dp7234
ag4
aa(lp7235
(dp7236
ag4
aa(lp7237
(dp7238
ag4
aa(lp7239
(dp7240
ag4
aa(lp7241
(dp7242
ag4
aa(lp7243
(dp7244
ag4
aa(lp7245
(dp7246
ag4
aa(lp7247
(dp7248
ag4
aa(lp7249
(dp7250
ag4
aa(lp7251
(dp7252
ag4
aa(lp7253
(dp7254
ag4
aa(lp7255
(dp7256
ag4
aa(lp7257
(dp7258
ag4
aa(lp7259
(dp7260
ag4
aa(lp7261
(dp7262
ag4
aa(lp7263
(dp7264
ag4
aa(lp7265
(dp7266
ag4
aa(lp7267
(dp7268
ag4
aa(lp7269
(dp7270
ag4
aa(lp7271
(dp7272
ag4
aa(lp7273
(dp7274
ag4
aa(lp7275
(dp7276
ag4
aa(lp7277
(dp7278
ag4
aa(lp7279
(dp7280
ag4
aa(lp7281
(dp7282
ag4
aa(lp7283
(dp7284
ag4
aa(lp7285
(dp7286
ag4
aa(lp7287
(dp7288
ag4
aa(lp7289
(dp7290
ag4
aa(lp7291
(dp7292
ag4
aa(lp7293
(dp7294
ag4
aa(lp7295
(dp7296
ag4
aa(lp7297
(dp7298
ag4
aa(lp7299
(dp7300
ag4
aa(lp7301
(dp7302
ag4
aa(lp7303
(dp7304
ag4
aa(lp7305
(dp7306
ag4
aa(lp7307
(dp7308
ag4
aa(lp7309
(dp7310
ag4
aa(lp7311
(dp7312
ag4
aa(lp7313
(dp7314
ag4
aa(lp7315
(dp7316
ag4
aa(lp7317
(dp7318
ag4
aa(lp7319
(dp7320
ag4
aa(lp7321
(dp7322
ag4
aa(lp7323
(dp7324
ag4
aa(lp7325
(dp7326
ag4
aa(lp7327
(dp7328
ag4
aa(lp7329
(dp7330
ag4
aa(lp7331
(dp7332
ag4
aa(lp7333
(dp7334
ag4
aa(lp7335
(dp7336
ag4
aa(lp7337
(dp7338
ag4
aa(lp7339
(dp7340
ag4
aa(lp7341
(dp7342
ag4
aa(lp7343
(dp7344
ag4
aa(lp7345
(dp7346
ag4
aa(lp7347
(dp7348
ag4
aa(lp7349
(dp7350
ag4
aa(lp7351
(dp7352
ag4
aa(lp7353
(dp7354
ag4
aa(lp7355
(dp7356
ag4
aa(lp7357
(dp7358
ag4
aa(lp7359
(dp7360
ag4
aa(lp7361
(dp7362
ag4
aa(lp7363
(dp7364
ag4
aa(lp7365
(dp7366
ag4
aa(lp7367
(dp7368
ag4
aa(lp7369
(dp7370
ag4
aa(lp7371
(dp7372
ag4
aa(lp7373
(dp7374
ag4
aa(lp7375
(dp7376
ag4
aa(lp7377
(dp7378
ag4
aa(lp7379
(dp7380
ag4
aa(lp7381
(dp7382
ag4
aa(lp7383
(dp7384
ag4
aa(lp7385
(dp7386
ag4
aa(lp7387
(dp7388
ag4
aa(lp7389
(dp7390
ag4
aa(lp7391
(dp7392
ag4
aa(lp7393
(dp7394
ag4
aa(lp7395
(dp7396
ag4
aa(lp7397
(dp7398
ag4
aa(lp7399
(dp7400
ag4
aa(lp7401
(dp7402
ag4
aa(lp7403
(dp7404
ag4
aa(lp7405
(dp7406
ag4
aa(lp7407
(dp7408
ag4
aa(lp7409
(dp7410
ag4
aa(lp7411
(dp7412
ag4
aa(lp7413
(dp7414
ag4
aa(lp7415
(dp7416
ag4
aa(lp7417
(dp7418
ag4
aa(lp7419
(dp7420
ag4
aa(lp7421
(dp7422
ag4
aa(lp7423
(dp7424
ag4
aa(lp7425
(dp7426
ag4
aa(lp7427
(dp7428
ag4
aa(lp7429
(dp7430
ag4
aa(lp7431
(dp7432
ag4
aa(lp7433
(dp7434
ag4
aa(lp7435
(dp7436
ag4
aa(lp7437
(dp7438
ag4
aa(lp7439
(dp7440
ag4
aa(lp7441
(dp7442
ag4
aa(lp7443
(dp7444
ag4
aa(lp7445
(dp7446
ag4
aa(lp7447
(dp7448
ag4
aa(lp7449
(dp7450
ag4
aa(lp7451
(dp7452
ag4
aa(lp7453
(dp7454
ag4
aa(lp7455
(dp7456
ag4
aa(lp7457
(dp7458
ag4
aa(lp7459
(dp7460
ag4
aa(lp7461
(dp7462
ag4
aa(lp7463
(dp7464
ag4
aa(lp7465
(dp7466
ag4
aa(lp7467
(dp7468
ag4
aa(lp7469
(dp7470
ag4
aa(lp7471
(dp7472
ag4
aa(lp7473
(dp7474
ag4
aa(lp7475
(dp7476
ag4
aa(lp7477
(dp7478
ag4
aa(lp7479
(dp7480
ag4
aa(lp7481
(dp7482
ag4
aa(lp7483
(dp7484
ag4
aa(lp7485
(dp7486
ag4
aa(lp7487
(dp7488
ag4
aa(lp7489
(dp7490
ag4
aa(lp7491
(dp7492
ag4
aa(lp7493
(dp7494
ag4
aa(lp7495
(dp7496
ag4
aa(lp7497
(dp7498
ag4
aa(lp7499
(dp7500
ag4
aa(lp7501
(dp7502
ag4
aa(lp7503
(dp7504
ag4
aa(lp7505
(dp7506
ag4
aa(lp7507
(dp7508
ag4
aa(lp7509
(dp7510
ag4
aa(lp7511
(dp7512
ag4
aa(lp7513
(dp7514
ag4
aa(lp7515
(dp7516
ag4
aa(lp7517
(dp7518
ag4
aa(lp7519
(dp7520
ag4
aa(lp7521
(dp7522
ag4
aa(lp7523
(dp7524
ag4
aa(lp7525
(dp7526
ag4
aa(lp7527
(dp7528
ag4
aa(lp7529
(dp7530
ag4
aa(lp7531
(dp7532
ag4
aa(lp7533
(dp7534
ag4
aa(lp7535
(dp7536
ag4
aa(lp7537
(dp7538
ag4
aa(lp7539
(dp7540
ag4
aa(lp7541
(dp7542
ag4
aa(lp7543
(dp7544
ag4
aa(lp7545
(dp7546
ag4
aa(lp7547
(dp7548
ag4
aa(lp7549
(dp7550
ag4
aa(lp7551
(dp7552
ag4
aa(lp7553
(dp7554
ag4
aa(lp7555
(dp7556
ag4
aa(lp7557
(dp7558
ag4
aa(lp7559
(dp7560
ag4
aa(lp7561
(dp7562
ag4
aa(lp7563
(dp7564
ag4
aa(lp7565
(dp7566
ag4
aa(lp7567
(dp7568
ag4
aa(lp7569
(dp7570
ag4
aa(lp7571
(dp7572
ag4
aa(lp7573
(dp7574
ag4
aa(lp7575
(dp7576
ag4
aa(lp7577
(dp7578
ag4
aa(lp7579
(dp7580
ag4
aa(lp7581
(dp7582
ag4
aa(lp7583
(dp7584
ag4
aa(lp7585
(dp7586
ag4
aa(lp7587
(dp7588
ag4
aa(lp7589
(dp7590
ag4
aa(lp7591
(dp7592
ag4
aa(lp7593
(dp7594
ag4
aa(lp7595
(dp7596
ag4
aa(lp7597
(dp7598
ag4
aa(lp7599
(dp7600
ag4
aa(lp7601
(dp7602
ag4
aa(lp7603
(dp7604
ag4
aa(lp7605
(dp7606
ag4
aa(lp7607
(dp7608
ag4
aa(lp7609
(dp7610
ag4
aa(lp7611
(dp7612
ag4
aa(lp7613
(dp7614
ag4
aa(lp7615
(dp7616
ag4
aa(lp7617
(dp7618
ag4
aa(lp7619
(dp7620
ag4
aa(lp7621
(dp7622
ag4
aa(lp7623
(dp7624
ag4
aa(lp7625
(dp7626
ag4
aa(lp7627
(dp7628
ag4
aa(lp7629
(dp7630
ag4
aa(lp7631
(dp7632
ag4
aa(lp7633
(dp7634
ag4
aa(lp7635
(dp7636
ag4
aa(lp7637
(dp7638
ag4
aa(lp7639
(dp7640
ag4
aa(lp7641
(dp7642
ag4
aa(lp7643
(dp7644
ag4
aa(lp7645
(dp7646
ag4
aa(lp7647
(dp7648
ag4
aa(lp7649
(dp7650
ag4
aa(lp7651
(dp7652
ag4
aa(lp7653
(dp7654
ag4
aa(lp7655
(dp7656
ag4
aa(lp7657
(dp7658
ag4
aa(lp7659
(dp7660
ag4
aa(lp7661
(dp7662
ag4
aa(lp7663
(dp7664
ag4
aa(lp7665
(dp7666
ag4
aa(lp7667
(dp7668
ag4
aa(lp7669
(dp7670
ag4
aa(lp7671
(dp7672
ag4
aa(lp7673
(dp7674
ag4
aa(lp7675
(dp7676
ag4
aa(lp7677
(dp7678
ag4
aa(lp7679
(dp7680
ag4
aa(lp7681
(dp7682
ag4
aa(lp7683
(dp7684
ag4
aa(lp7685
(dp7686
ag4
aa(lp7687
(dp7688
ag4
aa(lp7689
(dp7690
ag4
aa(lp7691
(dp7692
ag4
aa(lp7693
(dp7694
ag4
aa(lp7695
(dp7696
ag4
aa(lp7697
(dp7698
ag4
aa(lp7699
(dp7700
ag4
aa(lp7701
(dp7702
ag4
aa(lp7703
(dp7704
ag4
aa(lp7705
(dp7706
ag4
aa(lp7707
(dp7708
ag4
aa(lp7709
(dp7710
ag4
aa(lp7711
(dp7712
ag4
aa(lp7713
(dp7714
ag4
aa(lp7715
(dp7716
ag4
aa(lp7717
(dp7718
ag4
aa(lp7719
(dp7720
ag4
aa(lp7721
(dp7722
ag4
aa(lp7723
(dp7724
ag4
aa(lp7725
(dp7726
ag4
aa(lp7727
(dp7728
ag4
aa(lp7729
(dp7730
ag4
aa(lp7731
(dp7732
ag4
aa(lp7733
(dp7734
ag4
aa(lp7735
(dp7736
ag4
aa(lp7737
(dp7738
ag4
aa(lp7739
(dp7740
ag4
aa(lp7741
(dp7742
ag4
aa(lp7743
(dp7744
ag4
aa(lp7745
(dp7746
ag4
aa(lp7747
(dp7748
ag4
aa(lp7749
(dp7750
ag4
aa(lp7751
(dp7752
ag4
aa(lp7753
(dp7754
ag4
aa(lp7755
(dp7756
ag4
aa(lp7757
(dp7758
ag4
aa(lp7759
(dp7760
ag4
aa(lp7761
(dp7762
ag4
aa(lp7763
(dp7764
ag4
aa(lp7765
(dp7766
ag4
aa(lp7767
(dp7768
ag4
aa(lp7769
(dp7770
ag4
aa(lp7771
(dp7772
ag4
aa(lp7773
(dp7774
ag4
aa(lp7775
(dp7776
ag4
aa(lp7777
(dp7778
ag4
aa(lp7779
(dp7780
ag4
aa(lp7781
(dp7782
ag4
aa(lp7783
(dp7784
ag4
aa(lp7785
(dp7786
ag4
aa(lp7787
(dp7788
ag4
aa(lp7789
(dp7790
ag4
aa(lp7791
(dp7792
ag4
aa(lp7793
(dp7794
ag4
aa(lp7795
(dp7796
ag4
aa(lp7797
(dp7798
ag4
aa(lp7799
(dp7800
ag4
aa(lp7801
(dp7802
ag4
aa(lp7803
(dp7804
ag4
aa(lp7805
(dp7806
ag4
aa(lp7807
(dp7808
ag4
aa(lp7809
(dp7810
ag4
aa(lp7811
(dp7812
ag4
aa(lp7813
(dp7814
ag4
aa(lp7815
(dp7816
ag4
aa(lp7817
(dp7818
ag4
aa(lp7819
(dp7820
ag4
aa(lp7821
(dp7822
ag4
aa(lp7823
(dp7824
ag4
aa(lp7825
(dp7826
ag4
aa(lp7827
(dp7828
ag4
aa(lp7829
(dp7830
ag4
aa(lp7831
(dp7832
ag4
aa(lp7833
(dp7834
ag4
aa(lp7835
(dp7836
ag4
aa(lp7837
(dp7838
ag4
aa(lp7839
(dp7840
ag4
aa(lp7841
(dp7842
ag4
aa(lp7843
(dp7844
ag4
aa(lp7845
(dp7846
ag4
aa(lp7847
(dp7848
ag4
aa(lp7849
(dp7850
ag4
aa(lp7851
(dp7852
ag4
aa(lp7853
(dp7854
ag4
aa(lp7855
(dp7856
ag4
aa(lp7857
(dp7858
ag4
aa(lp7859
(dp7860
ag4
aa(lp7861
(dp7862
ag4
aa(lp7863
(dp7864
ag4
aa(lp7865
(dp7866
ag4
aa(lp7867
(dp7868
ag4
aa(lp7869
(dp7870
ag4
aa(lp7871
(dp7872
ag4
aa(lp7873
(dp7874
ag4
aa(lp7875
(dp7876
ag4
aa(lp7877
(dp7878
ag4
aa(lp7879
(dp7880
ag4
aa(lp7881
(dp7882
ag4
aa(lp7883
(dp7884
ag4
aa(lp7885
(dp7886
ag4
aa(lp7887
(dp7888
ag4
aa(lp7889
(dp7890
ag4
aa(lp7891
(dp7892
ag4
aa(lp7893
(dp7894
ag4
aa(lp7895
(dp7896
ag4
aa(lp7897
(dp7898
ag4
aa(lp7899
(dp7900
ag4
aa(lp7901
(dp7902
ag4
aa(lp7903
(dp7904
ag4
aa(lp7905
(dp7906
ag4
aa(lp7907
(dp7908
ag4
aa(lp7909
(dp7910
ag4
aa(lp7911
(dp7912
ag4
aa(lp7913
(dp7914
ag4
aa(lp7915
(dp7916
ag4
aa(lp7917
(dp7918
ag4
aa(lp7919
(dp7920
ag4
aa(lp7921
(dp7922
ag4
aa(lp7923
(dp7924
ag4
aa(lp7925
(dp7926
ag4
aa(lp7927
(dp7928
ag4
aa(lp7929
(dp7930
ag4
aa(lp7931
(dp7932
ag4
aa(lp7933
(dp7934
ag4
aa(lp7935
(dp7936
ag4
aa(lp7937
(dp7938
ag4
aa(lp7939
(dp7940
ag4
aa(lp7941
(dp7942
ag4
aa(lp7943
(dp7944
ag4
aa(lp7945
(dp7946
ag4
aa(lp7947
(dp7948
ag4
aa(lp7949
(dp7950
ag4
aa(lp7951
(dp7952
ag4
aa(lp7953
(dp7954
ag4
aa(lp7955
(dp7956
ag4
aa(lp7957
(dp7958
ag4
aa(lp7959
(dp7960
ag4
aa(lp7961
(dp7962
ag4
aa(lp7963
(dp7964
ag4
aa(lp7965
(dp7966
ag4
aa(lp7967
(dp7968
ag4
aa(lp7969
(dp7970
ag4
aa(lp7971
(dp7972
ag4
aa(lp7973
(dp7974
ag4
aa(lp7975
(dp7976
ag4
aa(lp7977
(dp7978
ag4
aa(lp7979
(dp7980
ag4
aa(lp7981
(dp7982
ag4
aa(lp7983
(dp7984
ag4
aa(lp7985
(dp7986
ag4
aa(lp7987
(dp7988
ag4
aa(lp7989
(dp7990
ag4
aa(lp7991
(dp7992
ag4
aa(lp7993
(dp7994
ag4
aa(lp7995
(dp7996
ag4
aa(lp7997
(dp7998
ag4
aa(lp7999
(dp8000
ag4
aa(lp8001
(dp8002
ag4
aa(lp8003
(dp8004
ag4
aa(lp8005
(dp8006
ag4
aa(lp8007
(dp8008
ag4
aa(lp8009
(dp8010
ag4
aa(lp8011
(dp8012
ag4
aa(lp8013
(dp8014
ag4
aa(lp8015
(dp8016
ag4
aa(lp8017
(dp8018
ag4
aa(lp8019
(dp8020
ag4
aa(lp8021
(dp8022
ag4
aa(lp8023
(dp8024
ag4
aa(lp8025
(dp8026
ag4
aa(lp8027
(dp8028
ag4
aa(lp8029
(dp8030
ag4
aa(lp8031
(dp8032
ag4
aa(lp8033
(dp8034
ag4
aa(lp8035
(dp8036
ag4
aa(lp8037
(dp8038
ag4
aa(lp8039
(dp8040
ag4
aa(lp8041
(dp8042
ag4
aa(lp8043
(dp8044
ag4
aa(lp8045
(dp8046
ag4
aa(lp8047
(dp8048
ag4
aa(lp8049
(dp8050
ag4
aa(lp8051
(dp8052
ag4
aa(lp8053
(dp8054
ag4
aa(lp8055
(dp8056
ag4
aa(lp8057
(dp8058
ag4
aa(lp8059
(dp8060
ag4
aa(lp8061
(dp8062
ag4
aa(lp8063
(dp8064
ag4
aa(lp8065
(dp8066
ag4
aa(lp8067
(dp8068
ag4
aa(lp8069
(dp8070
ag4
aa(lp8071
(dp8072
ag4
aa(lp8073
(dp8074
ag4
aa(lp8075
(dp8076
ag4
aa(lp8077
(dp8078
ag4
aa(lp8079
(dp8080
ag4
aa(lp8081
(dp8082
ag4
aa(lp8083
(dp8084
ag4
aa(lp8085
(dp8086
ag4
aa(lp8087
(dp8088
ag4
aa(lp8089
(dp8090
ag4
aa(lp8091
(dp8092
ag4
aa(lp8093
(dp8094
ag4
aa(lp8095
(dp8096
ag4
aa(lp8097
(dp8098
ag4
aa(lp8099
(dp8100
ag4
aa(lp8101
(dp8102
ag4
aa(lp8103
(dp8104
ag4
aa(lp8105
(dp8106
ag4
aa(lp8107
(dp8108
ag4
aa(lp8109
(dp8110
ag4
aa(lp8111
(dp8112
ag4
aa(lp8113
(dp8114
ag4
aa(lp8115
(dp8116
ag4
aa(lp8117
(dp8118
ag4
aa(lp8119
(dp8120
ag4
aa(lp8121
(dp8122
ag4
aa(lp8123
(dp8124
ag4
aa(lp8125
(dp8126
ag4
aa(lp8127
(dp8128
ag4
aa(lp8129
(dp8130
ag4
aa(lp8131
(dp8132
ag4
aa(lp8133
(dp8134
ag4
aa(lp8135
(dp8136
ag4
aa(lp8137
(dp8138
ag4
aa(lp8139
(dp8140
ag4
aa(lp8141
(dp8142
ag4
aa(lp8143
(dp8144
ag4
aa(lp8145
(dp8146
ag4
aa(lp8147
(dp8148
ag4
aa(lp8149
(dp8150
ag4
aa(lp8151
(dp8152
ag4
aa(lp8153
(dp8154
ag4
aa(lp8155
(dp8156
ag4
aa(lp8157
(dp8158
ag4
aa(lp8159
(dp8160
ag4
aa(lp8161
(dp8162
ag4
aa(lp8163
(dp8164
ag4
aa(lp8165
(dp8166
ag4
aa(lp8167
(dp8168
ag4
aa(lp8169
(dp8170
ag4
aa(lp8171
(dp8172
ag4
aa(lp8173
(dp8174
ag4
aa(lp8175
(dp8176
ag4
aa(lp8177
(dp8178
ag4
aa(lp8179
(dp8180
ag4
aa(lp8181
(dp8182
ag4
aa(lp8183
(dp8184
ag4
aa(lp8185
(dp8186
ag4
aa(lp8187
(dp8188
ag4
aa(lp8189
(dp8190
ag4
aa(lp8191
(dp8192
ag4
aa(lp8193
(dp8194
ag4
aa(lp8195
(dp8196
ag4
aa(lp8197
(dp8198
ag4
aa(lp8199
(dp8200
ag4
aa(lp8201
(dp8202
ag4
aa(lp8203
(dp8204
ag4
aa(lp8205
(dp8206
ag4
aa(lp8207
(dp8208
ag4
aa(lp8209
(dp8210
ag4
aa(lp8211
(dp8212
ag4
aa(lp8213
(dp8214
ag4
aa(lp8215
(dp8216
ag4
aa(lp8217
(dp8218
ag4
aa(lp8219
(dp8220
ag4
aa(lp8221
(dp8222
ag4
aa(lp8223
(dp8224
ag4
aa(lp8225
(dp8226
ag4
aa(lp8227
(dp8228
ag4
aa(lp8229
(dp8230
ag4
aa(lp8231
(dp8232
ag4
aa(lp8233
(dp8234
ag4
aa(lp8235
(dp8236
ag4
aa(lp8237
(dp8238
ag4
aa(lp8239
(dp8240
ag4
aa(lp8241
(dp8242
ag4
aa(lp8243
(dp8244
ag4
aa(lp8245
(dp8246
ag4
aa(lp8247
(dp8248
ag4
aa(lp8249
(dp8250
ag4
aa(lp8251
(dp8252
ag4
aa(lp8253
(dp8254
ag4
aa(lp8255
(dp8256
ag4
aa(lp8257
(dp8258
ag4
aa(lp8259
(dp8260
ag4
aa(lp8261
(dp8262
ag4
aa(lp8263
(dp8264
ag4
aa(lp8265
(dp8266
ag4
aa(lp8267
(dp8268
ag4
aa(lp8269
(dp8270
ag4
aa(lp8271
(dp8272
ag4
aa(lp8273
(dp8274
ag4
aa(lp8275
(dp8276
ag4
aa(lp8277
(dp8278
ag4
aa(lp8279
(dp8280
ag4
aa(lp8281
(dp8282
ag4
aa(lp8283
(dp8284
ag4
aa(lp8285
(dp8286
ag4
aa(lp8287
(dp8288
ag4
aa(lp8289
(dp8290
ag4
aa(lp8291
(dp8292
ag4
aa(lp8293
(dp8294
ag4
aa(lp8295
(dp8296
ag4
aa(lp8297
(dp8298
ag4
aa(lp8299
(dp8300
ag4
aa(lp8301
(dp8302
ag4
aa(lp8303
(dp8304
ag4
aa(lp8305
(dp8306
ag4
aa(lp8307
(dp8308
ag4
aa(lp8309
(dp8310
ag4
aa(lp8311
(dp8312
ag4
aa(lp8313
(dp8314
ag4
aa(lp8315
(dp8316
ag4
aa(lp8317
(dp8318
ag4
aa(lp8319
(dp8320
ag4
aa(lp8321
(dp8322
ag4
aa(lp8323
(dp8324
ag4
aa(lp8325
(dp8326
ag4
aa(lp8327
(dp8328
ag4
aa(lp8329
(dp8330
ag4
aa(lp8331
(dp8332
ag4
aa(lp8333
(dp8334
ag4
aa(lp8335
(dp8336
ag4
aa(lp8337
(dp8338
ag4
aa(lp8339
(dp8340
ag4
aa(lp8341
(dp8342
ag4
aa(lp8343
(dp8344
ag4
aa(lp8345
(dp8346
ag4
aa(lp8347
(dp8348
ag4
aa(lp8349
(dp8350
ag4
aa(lp8351
(dp8352
ag4
aa(lp8353
(dp8354
ag4
aa(lp8355
(dp8356
ag4
aa(lp8357
(dp8358
ag4
aa(lp8359
(dp8360
ag4
aa(lp8361
(dp8362
ag4
aa(lp8363
(dp8364
ag4
aa(lp8365
(dp8366
ag4
aa(lp8367
(dp8368
ag4
aa(lp8369
(dp8370
ag4
aa(lp8371
(dp8372
ag4
aa(lp8373
(dp8374
ag4
aa(lp8375
(dp8376
ag4
aa(lp8377
(dp8378
ag4
aa(lp8379
(dp8380
ag4
aa(lp8381
(dp8382
ag4
aa(lp8383
(dp8384
ag4
aa(lp8385
(dp8386
ag4
aa(lp8387
(dp8388
ag4
aa(lp8389
(dp8390
ag4
aa(lp8391
(dp8392
ag4
aa(lp8393
(dp8394
ag4
aa(lp8395
(dp8396
ag4
aa(lp8397
(dp8398
ag4
aa(lp8399
(dp8400
ag4
aa(lp8401
(dp8402
ag4
aa(lp8403
(dp8404
ag4
aa(lp8405
(dp8406
ag4
aa(lp8407
(dp8408
ag4
aa(lp8409
(dp8410
ag4
aa(lp8411
(dp8412
ag4
aa(lp8413
(dp8414
ag4
aa(lp8415
(dp8416
ag4
aa(lp8417
(dp8418
ag4
aa(lp8419
(dp8420
ag4
aa(lp8421
(dp8422
ag4
aa(lp8423
(dp8424
ag4
aa(lp8425
(dp8426
ag4
aa(lp8427
(dp8428
ag4
aa(lp8429
(dp8430
ag4
aa(lp8431
(dp8432
ag4
aa(lp8433
(dp8434
ag4
aa(lp8435
(dp8436
ag4
aa(lp8437
(dp8438
ag4
aa(lp8439
(dp8440
ag4
aa(lp8441
(dp8442
ag4
aa(lp8443
(dp8444
ag4
aa(lp8445
(dp8446
ag4
aa(lp8447
(dp8448
ag4
aa(lp8449
(dp8450
ag4
aa(lp8451
(dp8452
ag4
aa(lp8453
(dp8454
ag4
aa(lp8455
(dp8456
ag4
aa(lp8457
(dp8458
ag4
aa(lp8459
(dp8460
ag4
aa(lp8461
(dp8462
ag4
aa(lp8463
(dp8464
ag4
aa(lp8465
(dp8466
ag4
aa(lp8467
(dp8468
ag4
aa(lp8469
(dp8470
ag4
aa(lp8471
(dp8472
ag4
aa(lp8473
(dp8474
ag4
aa(lp8475
(dp8476
ag4
aa(lp8477
(dp8478
ag4
aa(lp8479
(dp8480
ag4
aa(lp8481
(dp8482
ag4
aa(lp8483
(dp8484
ag4
aa(lp8485
(dp8486
ag4
aa(lp8487
(dp8488
ag4
aa(lp8489
(dp8490
ag4
aa(lp8491
(dp8492
ag4
aa(lp8493
(dp8494
ag4
aa(lp8495
(dp8496
ag4
aa(lp8497
(dp8498
ag4
aa(lp8499
(dp8500
ag4
aa(lp8501
(dp8502
ag4
aa(lp8503
(dp8504
ag4
aa(lp8505
(dp8506
ag4
aa(lp8507
(dp8508
ag4
aa(lp8509
(dp8510
ag4
aa(lp8511
(dp8512
ag4
aa(lp8513
(dp8514
ag4
aa(lp8515
(dp8516
ag4
aa(lp8517
(dp8518
ag4
aa(lp8519
(dp8520
ag4
aa(lp8521
(dp8522
ag4
aa(lp8523
(dp8524
ag4
aa(lp8525
(dp8526
ag4
aa(lp8527
(dp8528
ag4
aa(lp8529
(dp8530
ag4
aa(lp8531
(dp8532
ag4
aa(lp8533
(dp8534
ag4
aa(lp8535
(dp8536
ag4
aa(lp8537
(dp8538
ag4
aa(lp8539
(dp8540
ag4
aa(lp8541
(dp8542
ag4
aa(lp8543
(dp8544
ag4
aa(lp8545
(dp8546
ag4
aa(lp8547
(dp8548
ag4
aa(lp8549
(dp8550
ag4
aa(lp8551
(dp8552
ag4
aa(lp8553
(dp8554
ag4
aa(lp8555
(dp8556
ag4
aa(lp8557
(dp8558
ag4
aa(lp8559
(dp8560
ag4
aa(lp8561
(dp8562
ag4
aa(lp8563
(dp8564
ag4
aa(lp8565
(dp8566
ag4
aa(lp8567
(dp8568
ag4
aa(lp8569
(dp8570
ag4
aa(lp8571
(dp8572
ag4
aa(lp8573
(dp8574
ag4
aa(lp8575
(dp8576
ag4
aa(lp8577
(dp8578
ag4
aa(lp8579
(dp8580
ag4
aa(lp8581
(dp8582
ag4
aa(lp8583
(dp8584
ag4
aa(lp8585
(dp8586
ag4
aa(lp8587
(dp8588
ag4
aa(lp8589
(dp8590
ag4
aa(lp8591
(dp8592
ag4
aa(lp8593
(dp8594
ag4
aa(lp8595
(dp8596
ag4
aa(lp8597
(dp8598
ag4
aa(lp8599
(dp8600
ag4
aa(lp8601
(dp8602
ag4
aa(lp8603
(dp8604
ag4
aa(lp8605
(dp8606
ag4
aa(lp8607
(dp8608
ag4
aa(lp8609
(dp8610
ag4
aa(lp8611
(dp8612
ag4
aa(lp8613
(dp8614
ag4
aa(lp8615
(dp8616
ag4
aa(lp8617
(dp8618
ag4
aa(lp8619
(dp8620
ag4
aa(lp8621
(dp8622
ag4
aa(lp8623
(dp8624
ag4
aa(lp8625
(dp8626
ag4
aa(lp8627
(dp8628
ag4
aa(lp8629
(dp8630
ag4
aa(lp8631
(dp8632
ag4
aa(lp8633
(dp8634
ag4
aa(lp8635
(dp8636
ag4
aa(lp8637
(dp8638
ag4
aa(lp8639
(dp8640
ag4
aa(lp8641
(dp8642
ag4
aa(lp8643
(dp8644
ag4
aa(lp8645
(dp8646
ag4
aa(lp8647
(dp8648
ag4
aa(lp8649
(dp8650
ag4
aa(lp8651
(dp8652
ag4
aa(lp8653
(dp8654
ag4
aa(lp8655
(dp8656
ag4
aa(lp8657
(dp8658
ag4
aa(lp8659
(dp8660
ag4
aa(lp8661
(dp8662
ag4
aa(lp8663
(dp8664
ag4
aa(lp8665
(dp8666
ag4
aa(lp8667
(dp8668
ag4
aa(lp8669
(dp8670
ag4
aa(lp8671
(dp8672
ag4
aa(lp8673
(dp8674
ag4
aa(lp8675
(dp8676
ag4
aa(lp8677
(dp8678
ag4
aa(lp8679
(dp8680
ag4
aa(lp8681
(dp8682
ag4
aa(lp8683
(dp8684
ag4
aa(lp8685
(dp8686
ag4
aa(lp8687
(dp8688
ag4
aa(lp8689
(dp8690
ag4
aa(lp8691
(dp8692
ag4
aa(lp8693
(dp8694
ag4
aa(lp8695
(dp8696
ag4
aa(lp8697
(dp8698
ag4
aa(lp8699
(dp8700
ag4
aa(lp8701
(dp8702
ag4
aa(lp8703
(dp8704
ag4
aa(lp8705
(dp8706
ag4
aa(lp8707
(dp8708
ag4
aa(lp8709
(dp8710
ag4
aa(lp8711
(dp8712
ag4
aa(lp8713
(dp8714
ag4
aa(lp8715
(dp8716
ag4
aa(lp8717
(dp8718
ag4
aa(lp8719
(dp8720
ag4
aa(lp8721
(dp8722
ag4
aa(lp8723
(dp8724
ag4
aa(lp8725
(dp8726
ag4
aa(lp8727
(dp8728
ag4
aa(lp8729
(dp8730
ag4
aa(lp8731
(dp8732
ag4
aa(lp8733
(dp8734
ag4
aa(lp8735
(dp8736
ag4
aa(lp8737
(dp8738
ag4
aa(lp8739
(dp8740
ag4
aa(lp8741
(dp8742
ag4
aa(lp8743
(dp8744
ag4
aa(lp8745
(dp8746
ag4
aa(lp8747
(dp8748
ag4
aa(lp8749
(dp8750
ag4
aa(lp8751
(dp8752
ag4
aa(lp8753
(dp8754
ag4
aa(lp8755
(dp8756
ag4
aa(lp8757
(dp8758
ag4
aa(lp8759
(dp8760
ag4
aa(lp8761
(dp8762
ag4
aa(lp8763
(dp8764
ag4
aa(lp8765
(dp8766
ag4
aa(lp8767
(dp8768
ag4
aa(lp8769
(dp8770
ag4
aa(lp8771
(dp8772
ag4
aa(lp8773
(dp8774
ag4
aa(lp8775
(dp8776
ag4
aa(lp8777
(dp8778
ag4
aa(lp8779
(dp8780
ag4
aa(lp8781
(dp8782
ag4
aa(lp8783
(dp8784
ag4
aa(lp8785
(dp8786
ag4
aa(lp8787
(dp8788
ag4
aa(lp8789
(dp8790
ag4
aa(lp8791
(dp8792
ag4
aa(lp8793
(dp8794
ag4
aa(lp8795
(dp8796
ag4
aa(lp8797
(dp8798
ag4
aa(lp8799
(dp8800
ag4
aa(lp8801
(dp8802
ag4
aa(lp8803
(dp8804
ag4
aa(lp8805
(dp8806
ag4
aa(lp8807
(dp8808
ag4
aa(lp8809
(dp8810
ag4
aa(lp8811
(dp8812
ag4
aa(lp8813
(dp8814
ag4
aa(lp8815
(dp8816
ag4
aa(lp8817
(dp8818
ag4
aa(lp8819
(dp8820
ag4
aa(lp8821
(dp8822
ag4
aa(lp8823
(dp8824
ag4
aa(lp8825
(dp8826
ag4
aa(lp8827
(dp8828
ag4
aa(lp8829
(dp8830
ag4
aa(lp8831
(dp8832
ag4
aa(lp8833
(dp8834
ag4
aa(lp8835
(dp8836
ag4
aa(lp8837
(dp8838
ag4
aa(lp8839
(dp8840
ag4
aa(lp8841
(dp8842
ag4
aa(lp8843
(dp8844
ag4
aa(lp8845
(dp8846
ag4
aa(lp8847
(dp8848
ag4
aa(lp8849
(dp8850
ag4
aa(lp8851
(dp8852
ag4
aa(lp8853
(dp8854
ag4
aa(lp8855
(dp8856
ag4
aa(lp8857
(dp8858
ag4
aa(lp8859
(dp8860
ag4
aa(lp8861
(dp8862
ag4
aa(lp8863
(dp8864
ag4
aa(lp8865
(dp8866
ag4
aa(lp8867
(dp8868
ag4
aa(lp8869
(dp8870
ag4
aa(lp8871
(dp8872
ag4
aa(lp8873
(dp8874
ag4
aa(lp8875
(dp8876
ag4
aa(lp8877
(dp8878
ag4
aa(lp8879
(dp8880
ag4
aa(lp8881
(dp8882
ag4
aa(lp8883
(dp8884
ag4
aa(lp8885
(dp8886
ag4
aa(lp8887
(dp8888
ag4
aa(lp8889
(dp8890
ag4
aa(lp8891
(dp8892
ag4
aa(lp8893
(dp8894
ag4
aa(lp8895
(dp8896
ag4
aa(lp8897
(dp8898
ag4
aa(lp8899
(dp8900
ag4
aa(lp8901
(dp8902
ag4
aa(lp8903
(dp8904
ag4
aa(lp8905
(dp8906
ag4
aa(lp8907
(dp8908
ag4
aa(lp8909
(dp8910
ag4
aa(lp8911
(dp8912
ag4
aa(lp8913
(dp8914
ag4
aa(lp8915
(dp8916
ag4
aa(lp8917
(dp8918
ag4
aa(lp8919
(dp8920
ag4
aa(lp8921
(dp8922
ag4
aa(lp8923
(dp8924
ag4
aa(lp8925
(dp8926
ag4
aa(lp8927
(dp8928
ag4
aa(lp8929
(dp8930
ag4
aa(lp8931
(dp8932
ag4
aa(lp8933
(dp8934
ag4
aa(lp8935
(dp8936
ag4
aa(lp8937
(dp8938
ag4
aa(lp8939
(dp8940
ag4
aa(lp8941
(dp8942
ag4
aa(lp8943
(dp8944
ag4
aa(lp8945
(dp8946
ag4
aa(lp8947
(dp8948
ag4
aa(lp8949
(dp8950
ag4
aa(lp8951
(dp8952
ag4
aa(lp8953
(dp8954
ag4
aa(lp8955
(dp8956
ag4
aa(lp8957
(dp8958
ag4
aa(lp8959
(dp8960
ag4
aa(lp8961
(dp8962
ag4
aa(lp8963
(dp8964
ag4
aa(lp8965
(dp8966
ag4
aa(lp8967
(dp8968
ag4
aa(lp8969
(dp8970
ag4
aa(lp8971
(dp8972
ag4
aa(lp8973
(dp8974
ag4
aa(lp8975
(dp8976
ag4
aa(lp8977
(dp8978
ag4
aa(lp8979
(dp8980
ag4
aa(lp8981
(dp8982
ag4
aa(lp8983
(dp8984
ag4
aa(lp8985
(dp8986
ag4
aa(lp8987
(dp8988
ag4
aa(lp8989
(dp8990
ag4
aa(lp8991
(dp8992
ag4
aa(lp8993
(dp8994
ag4
aa(lp8995
(dp8996
ag4
aa(lp8997
(dp8998
ag4
aa(lp8999
(dp9000
ag4
aa(lp9001
(dp9002
ag4
aa(lp9003
(dp9004
ag4
aa(lp9005
(dp9006
ag4
aa(lp9007
(dp9008
ag4
aa(lp9009
(dp9010
ag4
aa(lp9011
(dp9012
ag4
aa(lp9013
(dp9014
ag4
aa(lp9015
(dp9016
ag4
aa(lp9017
(dp9018
ag4
aa(lp9019
(dp9020
ag4
aa(lp9021
(dp9022
ag4
aa(lp9023
(dp9024
ag4
aa(lp9025
(dp9026
ag4
aa(lp9027
(dp9028
ag4
aa(lp9029
(dp9030
ag4
aa(lp9031
(dp9032
ag4
aa(lp9033
(dp9034
ag4
aa(lp9035
(dp9036
ag4
aa(lp9037
(dp9038
ag4
aa(lp9039
(dp9040
ag4
aa(lp9041
(dp9042
ag4
aa(lp9043
(dp9044
ag4
aa(lp9045
(dp9046
ag4
aa(lp9047
(dp9048
ag4
aa(lp9049
(dp9050
ag4
aa(lp9051
(dp9052
ag4
aa(lp9053
(dp9054
ag4
aa(lp9055
(dp9056
ag4
aa(lp9057
(dp9058
ag4
aa(lp9059
(dp9060
ag4
aa(lp9061
(dp9062
ag4
aa(lp9063
(dp9064
ag4
aa(lp9065
(dp9066
ag4
aa(lp9067
(dp9068
ag4
aa(lp9069
(dp9070
ag4
aa(lp9071
(dp9072
ag4
aa(lp9073
(dp9074
ag4
aa(lp9075
(dp9076
ag4
aa(lp9077
(dp9078
ag4
aa(lp9079
(dp9080
ag4
aa(lp9081
(dp9082
ag4
aa(lp9083
(dp9084
ag4
aa(lp9085
(dp9086
ag4
aa(lp9087
(dp9088
ag4
aa(lp9089
(dp9090
ag4
aa(lp9091
(dp9092
ag4
aa(lp9093
(dp9094
ag4
aa(lp9095
(dp9096
ag4
aa(lp9097
(dp9098
ag4
aa(lp9099
(dp9100
ag4
aa(lp9101
(dp9102
ag4
aa(lp9103
(dp9104
ag4
aa(lp9105
(dp9106
ag4
aa(lp9107
(dp9108
ag4
aa(lp9109
(dp9110
ag4
aa(lp9111
(dp9112
ag4
aa(lp9113
(dp9114
ag4
aa(lp9115
(dp9116
ag4
aa(lp9117
(dp9118
ag4
aa(lp9119
(dp9120
ag4
aa(lp9121
(dp9122
ag4
aa(lp9123
(dp9124
ag4
aa(lp9125
(dp9126
ag4
aa(lp9127
(dp9128
ag4
aa(lp9129
(dp9130
ag4
aa(lp9131
(dp9132
ag4
aa(lp9133
(dp9134
ag4
aa(lp9135
(dp9136
ag4
aa(lp9137
(dp9138
ag4
aa(lp9139
(dp9140
ag4
aa(lp9141
(dp9142
ag4
aa(lp9143
(dp9144
ag4
aa(lp9145
(dp9146
ag4
aa(lp9147
(dp9148
ag4
aa(lp9149
(dp9150
ag4
aa(lp9151
(dp9152
ag4
aa(lp9153
(dp9154
ag4
aa(lp9155
(dp9156
ag4
aa(lp9157
(dp9158
ag4
aa(lp9159
(dp9160
ag4
aa(lp9161
(dp9162
ag4
aa(lp9163
(dp9164
ag4
aa(lp9165
(dp9166
ag4
aa(lp9167
(dp9168
ag4
aa(lp9169
(dp9170
ag4
aa(lp9171
(dp9172
ag4
aa(lp9173
(dp9174
ag4
aa(lp9175
(dp9176
ag4
aa(lp9177
(dp9178
ag4
aa(lp9179
(dp9180
ag4
aa(lp9181
(dp9182
ag4
aa(lp9183
(dp9184
ag4
aa(lp9185
(dp9186
ag4
aa(lp9187
(dp9188
ag4
aa(lp9189
(dp9190
ag4
aa(lp9191
(dp9192
ag4
aa(lp9193
(dp9194
ag4
aa(lp9195
(dp9196
ag4
aa(lp9197
(dp9198
ag4
aa(lp9199
(dp9200
ag4
aa(lp9201
(dp9202
ag4
aa(lp9203
(dp9204
ag4
aa(lp9205
(dp9206
ag4
aa(lp9207
(dp9208
ag4
aa(lp9209
(dp9210
ag4
aa(lp9211
(dp9212
ag4
aa(lp9213
(dp9214
ag4
aa(lp9215
(dp9216
ag4
aa(lp9217
(dp9218
ag4
aa(lp9219
(dp9220
ag4
aa(lp9221
(dp9222
ag4
aa(lp9223
(dp9224
ag4
aa(lp9225
(dp9226
ag4
aa(lp9227
(dp9228
ag4
aa(lp9229
(dp9230
ag4
aa(lp9231
(dp9232
ag4
aa(lp9233
(dp9234
ag4
aa(lp9235
(dp9236
ag4
aa(lp9237
(dp9238
ag4
aa(lp9239
(dp9240
ag4
aa(lp9241
(dp9242
ag4
aa(lp9243
(dp9244
ag4
aa(lp9245
(dp9246
ag4
aa(lp9247
(dp9248
ag4
aa(lp9249
(dp9250
ag4
aa(lp9251
(dp9252
ag4
aa(lp9253
(dp9254
ag4
aa(lp9255
(dp9256
ag4
aa(lp9257
(dp9258
ag4
aa(lp9259
(dp9260
ag4
aa(lp9261
(dp9262
ag4
aa(lp9263
(dp9264
ag4
aa(lp9265
(dp9266
ag4
aa(lp9267
(dp9268
ag4
aa(lp9269
(dp9270
ag4
aa(lp9271
(dp9272
ag4
aa(lp9273
(dp9274
ag4
aa(lp9275
(dp9276
ag4
aa(lp9277
(dp9278
ag4
aa(lp9279
(dp9280
ag4
aa(lp9281
(dp9282
ag4
aa(lp9283
(dp9284
ag4
aa(lp9285
(dp9286
ag4
aa(lp9287
(dp9288
ag4
aa(lp9289
(dp9290
ag4
aa(lp9291
(dp9292
ag4
aa(lp9293
(dp9294
ag4
aa(lp9295
(dp9296
ag4
aa(lp9297
(dp9298
ag4
aa(lp9299
(dp9300
ag4
aa(lp9301
(dp9302
ag4
aa(lp9303
(dp9304
ag4
aa(lp9305
(dp9306
ag4
aa(lp9307
(dp9308
ag4
aa(lp9309
(dp9310
ag4
aa(lp9311
(dp9312
ag4
aa(lp9313
(dp9314
ag4
aa(lp9315
(dp9316
ag4
aa(lp9317
(dp9318
ag4
aa(lp9319
(dp9320
ag4
aa(lp9321
(dp9322
ag4
aa(lp9323
(dp9324
ag4
aa(lp9325
(dp9326
ag4
aa(lp9327
(dp9328
ag4
aa(lp9329
(dp9330
ag4
aa(lp9331
(dp9332
ag4
aa(lp9333
(dp9334
ag4
aa(lp9335
(dp9336
ag4
aa(lp9337
(dp9338
ag4
aa(lp9339
(dp9340
ag4
aa(lp9341
(dp9342
ag4
aa(lp9343
(dp9344
ag4
aa(lp9345
(dp9346
ag4
aa(lp9347
(dp9348
ag4
aa(lp9349
(dp9350
ag4
aa(lp9351
(dp9352
ag4
aa(lp9353
(dp9354
ag4
aa(lp9355
(dp9356
ag4
aa(lp9357
(dp9358
ag4
aa(lp9359
(dp9360
ag4
aa(lp9361
(dp9362
ag4
aa(lp9363
(dp9364
ag4
aa(lp9365
(dp9366
ag4
aa(lp9367
(dp9368
ag4
aa(lp9369
(dp9370
ag4
aa(lp9371
(dp9372
ag4
aa(lp9373
(dp9374
ag4
aa(lp9375
(dp9376
ag4
aa(lp9377
(dp9378
ag4
aa(lp9379
(dp9380
ag4
aa(lp9381
(dp9382
ag4
aa(lp9383
(dp9384
ag4
aa(lp9385
(dp9386
ag4
aa(lp9387
(dp9388
ag4
aa(lp9389
(dp9390
ag4
aa(lp9391
(dp9392
ag4
aa(lp9393
(dp9394
ag4
aa(lp9395
(dp9396
ag4
aa(lp9397
(dp9398
ag4
aa(lp9399
(dp9400
ag4
aa(lp9401
(dp9402
ag4
aa(lp9403
(dp9404
ag4
aa(lp9405
(dp9406
ag4
aa(lp9407
(dp9408
ag4
aa(lp9409
(dp9410
ag4
aa(lp9411
(dp9412
ag4
aa(lp9413
(dp9414
ag4
aa(lp9415
(dp9416
ag4
aa(lp9417
(dp9418
ag4
aa(lp9419
(dp9420
ag4
aa(lp9421
(dp9422
ag4
aa(lp9423
(dp9424
ag4
aa(lp9425
(dp9426
ag4
aa(lp9427
(dp9428
ag4
aa(lp9429
(dp9430
ag4
aa(lp9431
(dp9432
ag4
aa(lp9433
(dp9434
ag4
aa(lp9435
(dp9436
ag4
aa(lp9437
(dp9438
ag4
aa(lp9439
(dp9440
ag4
aa(lp9441
(dp9442
ag4
aa(lp9443
(dp9444
ag4
aa(lp9445
(dp9446
ag4
aa(lp9447
(dp9448
ag4
aa(lp9449
(dp9450
ag4
aa(lp9451
(dp9452
ag4
aa(lp9453
(dp9454
ag4
aa(lp9455
(dp9456
ag4
aa(lp9457
(dp9458
ag4
aa(lp9459
(dp9460
ag4
aa(lp9461
(dp9462
ag4
aa(lp9463
(dp9464
ag4
aa(lp9465
(dp9466
ag4
aa(lp9467
(dp9468
ag4
aa(lp9469
(dp9470
ag4
aa(lp9471
(dp9472
ag4
aa(lp9473
(dp9474
ag4
aa(lp9475
(dp9476
ag4
aa(lp9477
(dp9478
ag4
aa(lp9479
(dp9480
ag4
aa(lp9481
(dp9482
ag4
aa(lp9483
(dp9484
ag4
aa(lp9485
(dp9486
ag4
aa(lp9487
(dp9488
ag4
aa(lp9489
(dp9490
ag4
aa(lp9491
(dp9492
ag4
aa(lp9493
(dp9494
ag4
aa(lp9495
(dp9496
ag4
aa(lp9497
(dp9498
ag4
aa(lp9499
(dp9500
ag4
aa(lp9501
(dp9502
ag4
aa(lp9503
(dp9504
ag4
aa(lp9505
(dp9506
ag4
aa(lp9507
(dp9508
ag4
aa(lp9509
(dp9510
ag4
aa(lp9511
(dp9512
ag4
aa(lp9513
(dp9514
ag4
aa(lp9515
(dp9516
ag4
aa(lp9517
(dp9518
ag4
aa(lp9519
(dp9520
ag4
aa(lp9521
(dp9522
ag4
aa(lp9523
(dp9524
ag4
aa(lp9525
(dp9526
ag4
aa(lp9527
(dp9528
ag4
aa(lp9529
(dp9530
ag4
aa(lp9531
(dp9532
ag4
aa(lp9533
(dp9534
ag4
aa(lp9535
(dp9536
ag4
aa(lp9537
(dp9538
ag4
aa(lp9539
(dp9540
ag4
aa(lp9541
(dp9542
ag4
aa(lp9543
(dp9544
ag4
aa(lp9545
(dp9546
ag4
aa(lp9547
(dp9548
ag4
aa(lp9549
(dp9550
ag4
aa(lp9551
(dp9552
ag4
aa(lp9553
(dp9554
ag4
aa(lp9555
(dp9556
ag4
aa(lp9557
(dp9558
ag4
aa(lp9559
(dp9560
ag4
aa(lp9561
(dp9562
ag4
aa(lp9563
(dp9564
ag4
aa(lp9565
(dp9566
ag4
aa(lp9567
(dp9568
ag4
aa(lp9569
(dp9570
ag4
aa(lp9571
(dp9572
ag4
aa(lp9573
(dp9574
ag4
aa(lp9575
(dp9576
ag4
aa(lp9577
(dp9578
ag4
aa(lp9579
(dp9580
ag4
aa(lp9581
(dp9582
ag4
aa(lp9583
(dp9584
ag4
aa(lp9585
(dp9586
ag4
aa(lp9587
(dp9588
ag4
aa(lp9589
(dp9590
ag4
aa(lp9591
(dp9592
ag4
aa(lp9593
(dp9594
ag4
aa(lp9595
(dp9596
ag4
aa(lp9597
(dp9598
ag4
aa(lp9599
(dp9600
ag4
aa(lp9601
(dp9602
ag4
aa(lp9603
(dp9604
ag4
aa(lp9605
(dp9606
ag4
aa(lp9607
(dp9608
ag4
aa(lp9609
(dp9610
ag4
aa(lp9611
(dp9612
ag4
aa(lp9613
(dp9614
ag4
aa(lp9615
(dp9616
ag4
aa(lp9617
(dp9618
ag4
aa(lp9619
(dp9620
ag4
aa(lp9621
(dp9622
ag4
aa(lp9623
(dp9624
ag4
aa(lp9625
(dp9626
ag4
aa(lp9627
(dp9628
ag4
aa(lp9629
(dp9630
ag4
aa(lp9631
(dp9632
ag4
aa(lp9633
(dp9634
ag4
aa(lp9635
(dp9636
ag4
aa(lp9637
(dp9638
ag4
aa(lp9639
(dp9640
ag4
aa(lp9641
(dp9642
ag4
aa(lp9643
(dp9644
ag4
aa(lp9645
(dp9646
ag4
aa(lp9647
(dp9648
ag4
aa(lp9649
(dp9650
ag4
aa(lp9651
(dp9652
ag4
aa(lp9653
(dp9654
ag4
aa(lp9655
(dp9656
ag4
aa(lp9657
(dp9658
ag4
aa(lp9659
(dp9660
ag4
aa(lp9661
(dp9662
ag4
aa(lp9663
(dp9664
ag4
aa(lp9665
(dp9666
ag4
aa(lp9667
(dp9668
ag4
aa(lp9669
(dp9670
ag4
aa(lp9671
(dp9672
ag4
aa(lp9673
(dp9674
ag4
aa(lp9675
(dp9676
ag4
aa(lp9677
(dp9678
ag4
aa(lp9679
(dp9680
ag4
aa(lp9681
(dp9682
ag4
aa(lp9683
(dp9684
ag4
aa(lp9685
(dp9686
ag4
aa(lp9687
(dp9688
ag4
aa(lp9689
(dp9690
ag4
aa(lp9691
(dp9692
ag4
aa(lp9693
(dp9694
ag4
aa(lp9695
(dp9696
ag4
aa(lp9697
(dp9698
ag4
aa(lp9699
(dp9700
ag4
aa(lp9701
(dp9702
ag4
aa(lp9703
(dp9704
ag4
aa(lp9705
(dp9706
ag4
aa(lp9707
(dp9708
ag4
aa(lp9709
(dp9710
ag4
aa(lp9711
(dp9712
ag4
aa(lp9713
(dp9714
ag4
aa(lp9715
(dp9716
ag4
aa(lp9717
(dp9718
ag4
aa(lp9719
(dp9720
ag4
aa(lp9721
(dp9722
ag4
aa(lp9723
(dp9724
ag4
aa(lp9725
(dp9726
ag4
aa(lp9727
(dp9728
ag4
aa(lp9729
(dp9730
ag4
aa(lp9731
(dp9732
ag4
aa(lp9733
(dp9734
ag4
aa(lp9735
(dp9736
ag4
aa(lp9737
(dp9738
ag4
aa(lp9739
(dp9740
ag4
aa(lp9741
(dp9742
ag4
aa(lp9743
(dp9744
ag4
aa(lp9745
(dp9746
ag4
aa(lp9747
(dp9748
ag4
aa(lp9749
(dp9750
ag4
aa(lp9751
(dp9752
ag4
aa(lp9753
(dp9754
ag4
aa(lp9755
(dp9756
ag4
aa(lp9757
(dp9758
ag4
aa(lp9759
(dp9760
ag4
aa(lp9761
(dp9762
ag4
aa(lp9763
(dp9764
ag4
aa(lp9765
(dp9766
ag4
aa(lp9767
(dp9768
ag4
aa(lp9769
(dp9770
ag4
aa(lp9771
(dp9772
ag4
aa(lp9773
(dp9774
ag4
aa(lp9775
(dp9776
ag4
aa(lp9777
(dp9778
ag4
aa(lp9779
(dp9780
ag4
aa(lp9781
(dp9782
ag4
aa(lp9783
(dp9784
ag4
aa(lp9785
(dp9786
ag4
aa(lp9787
(dp9788
ag4
aa(lp9789
(dp9790
ag4
aa(lp9791
(dp9792
ag4
aa(lp9793
(dp9794
ag4
aa(lp9795
(dp9796
ag4
aa(lp9797
(dp9798
ag4
aa(lp9799
(dp9800
ag4
aa(lp9801
(dp9802
ag4
aa(lp9803
(dp9804
ag4
aa(lp9805
(dp9806
ag4
aa(lp9807
(dp9808
ag4
aa(lp9809
(dp9810
ag4
aa(lp9811
(dp9812
ag4
aa(lp9813
(dp9814
ag4
aa(lp9815
(dp9816
ag4
aa(lp9817
(dp9818
ag4
aa(lp9819
(dp9820
ag4
aa(lp9821
(dp9822
ag4
aa(lp9823
(dp9824
ag4
aa(lp9825
(dp9826
ag4
aa(lp9827
(dp9828
ag4
aa(lp9829
(dp9830
ag4
aa(lp9831
(dp9832
ag4
aa(lp9833
(dp9834
ag4
aa(lp9835
(dp9836
ag4
aa(lp9837
(dp9838
ag4
aa(lp9839
(dp9840
ag4
aa(lp9841
(dp9842
ag4
aa(lp9843
(dp9844
ag4
aa(lp9845
(dp9846
ag4
aa(lp9847
(dp9848
ag4
aa(lp9849
(dp9850
ag4
aa(lp9851
(dp9852
ag4
aa(lp9853
(dp9854
ag4
aa(lp9855
(dp9856
ag4
aa(lp9857
(dp9858
ag4
aa(lp9859
(dp9860
ag4
aa(lp9861
(dp9862
ag4
aa(lp9863
(dp9864
ag4
aa(lp9865
(dp9866
ag4
aa(lp9867
(dp9868
ag4
aa(lp9869
(dp9870
ag4
aa(lp9871
(dp9872
ag4
aa(lp9873
(dp9874
ag4
aa(lp9875
(dp9876
ag4
aa(lp9877
(dp9878
ag4
aa(lp9879
(dp9880
ag4
aa(lp9881
(dp9882
ag4
aa(lp9883
(dp9884
ag4
aa(lp9885
(dp9886
ag4
aa(lp9887
(dp9888
ag4
aa(lp9889
(dp9890
ag4
aa(lp9891
(dp9892
ag4
aa(lp9893
(dp9894
ag4
aa(lp9895
(dp9896
ag4
aa(lp9897
(dp9898
ag4
aa(lp9899
(dp9900
ag4
aa(lp9901
(dp9902
ag4
aa(lp9903
(dp9904
ag4
aa(lp9905
(dp9906
ag4
aa(lp9907
(dp9908
ag4
aa(lp9909
(dp9910
ag4
aa(lp9911
(dp9912
ag4
aa(lp9913
(dp9914
ag4
aa(lp9915
(dp9916
ag4
aa(lp9917
(dp9918
ag4
aa(lp9919
(dp9920
ag4
aa(lp9921
(dp9922
ag4
aa(lp9923
(dp9924
ag4
aa(lp9925
(dp9926
ag4
aa(lp9927
(dp9928
ag4
aa(lp9929
(dp9930
ag4
aa(lp9931
(dp9932
ag4
aa(lp9933
(dp9934
ag4
aa(lp9935
(dp9936
ag4
aa(lp9937
(dp9938
ag4
aa(lp9939
(dp9940
ag4
aa(lp9941
(dp9942
ag4
aa(lp9943
(dp9944
ag4
aa(lp9945
(dp9946
ag4
aa(lp9947
(dp9948
ag4
aa(lp9949
(dp9950
ag4
aa(lp9951
(dp9952
ag4
aa(lp9953
(dp9954
ag4
aa(lp9955
(dp9956
ag4
aa(lp9957
(dp9958
ag4
aa(lp9959
(dp9960
ag4
aa(lp9961
(dp9962
ag4
aa(lp9963
(dp9964
ag4
aa(lp9965
(dp9966
ag4
aa(lp9967
(dp9968
ag4
aa(lp9969
(dp9970
ag4
aa(lp9971
(dp9972
ag4
aa(lp9973
(dp9974
ag4
aa(lp9975
(dp9976
ag4
aa(lp9977
(dp9978
ag4
aa(lp9979
(dp9980
ag4
aa(lp9981
(dp9982
ag4
aa(lp9983
(dp9984
ag4
aa(lp9985
(dp9986
ag4
aa(lp9987
(dp9988
ag4
aa(lp9989
(dp9990
ag4
aa(lp9991
(dp9992
ag4
aa(lp9993
(dp9994
ag4
aa(lp9995
(dp9996
ag4
aa(lp9997
(dp9998
ag4
aa(lp9999
(dp10000
ag4
aa(lp10001
(dp10002
ag4
aa(lp10003
(dp10004
ag4
aa(lp10005
(dp10006
ag4
aa(lp10007
(dp10008
ag4
aa(lp10009
(dp10010
ag4
aa(lp10011
(dp10012
ag4
aa(lp10013
(dp10014
ag4
aa(lp10015
(dp10016
ag4
aa(lp10017
(dp10018
ag4
aa(lp10019
(dp10020
ag4
aa(lp10021
(dp10022
ag4
aa(lp10023
(dp10024
ag4
aa(lp10025
(dp10026
ag4
aa(lp10027
(dp10028
ag4
aa(lp10029
(dp10030
ag4
aa(lp10031
(dp10032
ag4
aa(lp10033
(dp10034
ag4
aa(lp10035
(dp10036
ag4
aa(lp10037
(dp10038
ag4
aa(lp10039
(dp10040
ag4
aa(lp10041
(dp10042
ag4
aa(lp10043
(dp10044
ag4
aa(lp10045
(dp10046
ag4
aa(lp10047
(dp10048
ag4
aa(lp10049
(dp10050
ag4
aa(lp10051
(dp10052
ag4
aa(lp10053
(dp10054
ag4
aa(lp10055
(dp10056
ag4
aa(lp10057
(dp10058
ag4
aa(lp10059
(dp10060
ag4
aa(lp10061
(dp10062
ag4
aa(lp10063
(dp10064
ag4
aa(lp10065
(dp10066
ag4
aa(lp10067
(dp10068
ag4
aa(lp10069
(dp10070
ag4
aa(lp10071
(dp10072
ag4
aa(lp10073
(dp10074
ag4
aa(lp10075
(dp10076
ag4
aa(lp10077
(dp10078
ag4
aa(lp10079
(dp10080
ag4
aa(lp10081
(dp10082
ag4
aa(lp10083
(dp10084
ag4
aa(lp10085
(dp10086
ag4
aa(lp10087
(dp10088
ag4
aa(lp10089
(dp10090
ag4
aa(lp10091
(dp10092
ag4
aa(lp10093
(dp10094
ag4
aa(lp10095
(dp10096
ag4
aa(lp10097
(dp10098
ag4
aa(lp10099
(dp10100
ag4
aa(lp10101
(dp10102
ag4
aa(lp10103
(dp10104
ag4
aa(lp10105
(dp10106
ag4
aa(lp10107
(dp10108
ag4
aa(lp10109
(dp10110
ag4
aa(lp10111
(dp10112
ag4
aa(lp10113
(dp10114
ag4
aa(lp10115
(dp10116
ag4
aa(lp10117
(dp10118
ag4
aa(lp10119
(dp10120
ag4
aa(lp10121
(dp10122
ag4
aa(lp10123
(dp10124
ag4
aa(lp10125
(dp10126
ag4
aa(lp10127
(dp10128
ag4
aa(lp10129
(dp10130
ag4
aa(lp10131
(dp10132
ag4
aa(lp10133
(dp10134
ag4
aa(lp10135
(dp10136
ag4
aa(lp10137
(dp10138
ag4
aa(lp10139
(dp10140
ag4
aa(lp10141
(dp10142
ag4
aa(lp10143
(dp10144
ag4
aa(lp10145
(dp10146
ag4
aa(lp10147
(dp10148
ag4
aa(lp10149
(dp10150
ag4
aa(lp10151
(dp10152
ag4
aa(lp10153
(dp10154
ag4
aa(lp10155
(dp10156
ag4
aa(lp10157
(dp10158
ag4
aa(lp10159
(dp10160
ag4
aa(lp10161
(dp10162
ag4
aa(lp10163
(dp10164
ag4
aa(lp10165
(dp10166
ag4
aa(lp10167
(dp10168
ag4
aa(lp10169
(dp10170
ag4
aa(lp10171
(dp10172
ag4
aa(lp10173
(dp10174
ag4
aa(lp10175
(dp10176
ag4
aa(lp10177
(dp10178
ag4
aa(lp10179
(dp10180
ag4
aa(lp10181
(dp10182
ag4
aa(lp10183
(dp10184
ag4
aa(lp10185
(dp10186
ag4
aa(lp10187
(dp10188
ag4
aa(lp10189
(dp10190
ag4
aa(lp10191
(dp10192
ag4
aa(lp10193
(dp10194
ag4
aa(lp10195
(dp10196
ag4
aa(lp10197
(dp10198
ag4
aa(lp10199
(dp10200
ag4
aa(lp10201
(dp10202
ag4
aa(lp10203
(dp10204
ag4
aa(lp10205
(dp10206
ag4
aa(lp10207
(dp10208
ag4
aa(lp10209
(dp10210
ag4
aa(lp10211
(dp10212
ag4
aa(lp10213
(dp10214
ag4
aa(lp10215
(dp10216
ag4
aa(lp10217
(dp10218
ag4
aa(lp10219
(dp10220
ag4
aa(lp10221
(dp10222
ag4
aa(lp10223
(dp10224
ag4
aa(lp10225
(dp10226
ag4
aa(lp10227
(dp10228
ag4
aa(lp10229
(dp10230
ag4
aa(lp10231
(dp10232
ag4
aa(lp10233
(dp10234
ag4
aa(lp10235
(dp10236
ag4
aa(lp10237
(dp10238
ag4
aa(lp10239
(dp10240
ag4
aa(lp10241
(dp10242
ag4
aa(lp10243
(dp10244
ag4
aa(lp10245
(dp10246
ag4
aa(lp10247
(dp10248
ag4
aa(lp10249
(dp10250
ag4
aa(lp10251
(dp10252
ag4
aa(lp10253
(dp10254
ag4
aa(lp10255
(dp10256
ag4
aa(lp10257
(dp10258
ag4
aa(lp10259
(dp10260
ag4
aa(lp10261
(dp10262
ag4
aa(lp10263
(dp10264
ag4
aa(lp10265
(dp10266
ag4
aa(lp10267
(dp10268
ag4
aa(lp10269
(dp10270
ag4
aa(lp10271
(dp10272
ag4
aa(lp10273
(dp10274
ag4
aa(lp10275
(dp10276
ag4
aa(lp10277
(dp10278
ag4
aa(lp10279
(dp10280
ag4
aa(lp10281
(dp10282
ag4
aa(lp10283
(dp10284
ag4
aa(lp10285
(dp10286
ag4
aa(lp10287
(dp10288
ag4
aa(lp10289
(dp10290
ag4
aa(lp10291
(dp10292
ag4
aa(lp10293
(dp10294
ag4
aa(lp10295
(dp10296
ag4
aa(lp10297
(dp10298
ag4
aa(lp10299
(dp10300
ag4
aa(lp10301
(dp10302
ag4
aa(lp10303
(dp10304
ag4
aa(lp10305
(dp10306
ag4
aa(lp10307
(dp10308
ag4
aa(lp10309
(dp10310
ag4
aa(lp10311
(dp10312
ag4
aa(lp10313
(dp10314
ag4
aa(lp10315
(dp10316
ag4
aa(lp10317
(dp10318
ag4
aa(lp10319
(dp10320
ag4
aa(lp10321
(dp10322
ag4
aa(lp10323
(dp10324
ag4
aa(lp10325
(dp10326
ag4
aa(lp10327
(dp10328
ag4
aa(lp10329
(dp10330
ag4
aa(lp10331
(dp10332
ag4
aa(lp10333
(dp10334
ag4
aa(lp10335
(dp10336
ag4
aa(lp10337
(dp10338
ag4
aa(lp10339
(dp10340
ag4
aa(lp10341
(dp10342
ag4
aa(lp10343
(dp10344
ag4
aa(lp10345
(dp10346
ag4
aa(lp10347
(dp10348
ag4
aa(lp10349
(dp10350
ag4
aa(lp10351
(dp10352
ag4
aa(lp10353
(dp10354
ag4
aa(lp10355
(dp10356
ag4
aa(lp10357
(dp10358
ag4
aa(lp10359
(dp10360
ag4
aa(lp10361
(dp10362
ag4
aa(lp10363
(dp10364
ag4
aa(lp10365
(dp10366
ag4
aa(lp10367
(dp10368
ag4
aa(lp10369
(dp10370
ag4
aa(lp10371
(dp10372
ag4
aa(lp10373
(dp10374
ag4
aa(lp10375
(dp10376
ag4
aa(lp10377
(dp10378
ag4
aa(lp10379
(dp10380
ag4
aa(lp10381
(dp10382
ag4
aa(lp10383
(dp10384
ag4
aa(lp10385
(dp10386
ag4
aa(lp10387
(dp10388
ag4
aa(lp10389
(dp10390
ag4
aa(lp10391
(dp10392
ag4
aa(lp10393
(dp10394
ag4
aa(lp10395
(dp10396
ag4
aa(lp10397
(dp10398
ag4
aa(lp10399
(dp10400
ag4
aa(lp10401
(dp10402
ag4
aa(lp10403
(dp10404
ag4
aa(lp10405
(dp10406
ag4
aa(lp10407
(dp10408
ag4
aa(lp10409
(dp10410
ag4
aa(lp10411
(dp10412
ag4
aa(lp10413
(dp10414
ag4
aa(lp10415
(dp10416
ag4
aa(lp10417
(dp10418
ag4
aa(lp10419
(dp10420
ag4
aa(lp10421
(dp10422
ag4
aa(lp10423
(dp10424
ag4
aa(lp10425
(dp10426
ag4
aa(lp10427
(dp10428
ag4
aa(lp10429
(dp10430
ag4
aa(lp10431
(dp10432
ag4
aa(lp10433
(dp10434
ag4
aa(lp10435
(dp10436
ag4
aa(lp10437
(dp10438
ag4
aa(lp10439
(dp10440
ag4
aa(lp10441
(dp10442
ag4
aa(lp10443
(dp10444
ag4
aa(lp10445
(dp10446
ag4
aa(lp10447
(dp10448
ag4
aa(lp10449
(dp10450
ag4
aa(lp10451
(dp10452
ag4
aa(lp10453
(dp10454
ag4
aa(lp10455
(dp10456
ag4
aa(lp10457
(dp10458
ag4
aa(lp10459
(dp10460
ag4
aa(lp10461
(dp10462
ag4
aa(lp10463
(dp10464
ag4
aa(lp10465
(dp10466
ag4
aa(lp10467
(dp10468
ag4
aa(lp10469
(dp10470
ag4
aa(lp10471
(dp10472
ag4
aa(lp10473
(dp10474
ag4
aa(lp10475
(dp10476
ag4
aa(lp10477
(dp10478
ag4
aa(lp10479
(dp10480
ag4
aa(lp10481
(dp10482
ag4
aa(lp10483
(dp10484
ag4
aa(lp10485
(dp10486
ag4
aa(lp10487
(dp10488
ag4
aa(lp10489
(dp10490
ag4
aa(lp10491
(dp10492
ag4
aa(lp10493
(dp10494
ag4
aa(lp10495
(dp10496
ag4
aa(lp10497
(dp10498
ag4
aa(lp10499
(dp10500
ag4
aa(lp10501
(dp10502
ag4
aa(lp10503
(dp10504
ag4
aa(lp10505
(dp10506
ag4
aa(lp10507
(dp10508
ag4
aa(lp10509
(dp10510
ag4
aa(lp10511
(dp10512
ag4
aa(lp10513
(dp10514
ag4
aa(lp10515
(dp10516
ag4
aa(lp10517
(dp10518
ag4
aa(lp10519
(dp10520
ag4
aa(lp10521
(dp10522
ag4
aa(lp10523
(dp10524
ag4
aa(lp10525
(dp10526
ag4
aa(lp10527
(dp10528
ag4
aa(lp10529
(dp10530
ag4
aa(lp10531
(dp10532
ag4
aa(lp10533
(dp10534
ag4
aa(lp10535
(dp10536
ag4
aa(lp10537
(dp10538
ag4
aa(lp10539
(dp10540
ag4
aa(lp10541
(dp10542
ag4
aa(lp10543
(dp10544
ag4
aa(lp10545
(dp10546
ag4
aa(lp10547
(dp10548
ag4
aa(lp10549
(dp10550
ag4
aa(lp10551
(dp10552
ag4
aa(lp10553
(dp10554
ag4
aa(lp10555
(dp10556
ag4
aa(lp10557
(dp10558
ag4
aa(lp10559
(dp10560
ag4
aa(lp10561
(dp10562
ag4
aa(lp10563
(dp10564
ag4
aa(lp10565
(dp10566
ag4
aa(lp10567
(dp10568
ag4
aa(lp10569
(dp10570
ag4
aa(lp10571
(dp10572
ag4
aa(lp10573
(dp10574
ag4
aa(lp10575
(dp10576
ag4
aa(lp10577
(dp10578
ag4
aa(lp10579
(dp10580
ag4
aa(lp10581
(dp10582
ag4
aa(lp10583
(dp10584
ag4
aa(lp10585
(dp10586
ag4
aa(lp10587
(dp10588
ag4
aa(lp10589
(dp10590
ag4
aa(lp10591
(dp10592
ag4
aa(lp10593
(dp10594
ag4
aa(lp10595
(dp10596
ag4
aa(lp10597
(dp10598
ag4
aa(lp10599
(dp10600
ag4
aa(lp10601
(dp10602
ag4
aa(lp10603
(dp10604
ag4
aa(lp10605
(dp10606
ag4
aa(lp10607
(dp10608
ag4
aa(lp10609
(dp10610
ag4
aa(lp10611
(dp10612
ag4
aa(lp10613
(dp10614
ag4
aa(lp10615
(dp10616
ag4
aa(lp10617
(dp10618
ag4
aa(lp10619
(dp10620
ag4
aa(lp10621
(dp10622
ag4
aa(lp10623
(dp10624
ag4
aa(lp10625
(dp10626
ag4
aa(lp10627
(dp10628
ag4
aa(lp10629
(dp10630
ag4
aa(lp10631
(dp10632
ag4
aa(lp10633
(dp10634
ag4
aa(lp10635
(dp10636
ag4
aa(lp10637
(dp10638
ag4
aa(lp10639
(dp10640
ag4
aa(lp10641
(dp10642
ag4
aa(lp10643
(dp10644
ag4
aa(lp10645
(dp10646
ag4
aa(lp10647
(dp10648
ag4
aa(lp10649
(dp10650
ag4
aa(lp10651
(dp10652
ag4
aa(lp10653
(dp10654
ag4
aa(lp10655
(dp10656
ag4
aa(lp10657
(dp10658
ag4
aa(lp10659
(dp10660
ag4
aa(lp10661
(dp10662
ag4
aa(lp10663
(dp10664
ag4
aa(lp10665
(dp10666
ag4
aa(lp10667
(dp10668
ag4
aa(lp10669
(dp10670
ag4
aa(lp10671
(dp10672
ag4
aa(lp10673
(dp10674
ag4
aa(lp10675
(dp10676
ag4
aa(lp10677
(dp10678
ag4
aa(lp10679
(dp10680
ag4
aa(lp10681
(dp10682
ag4
aa(lp10683
(dp10684
ag4
aa(lp10685
(dp10686
ag4
aa(lp10687
(dp10688
ag4
aa(lp10689
(dp10690
ag4
aa(lp10691
(dp10692
ag4
aa(lp10693
(dp10694
ag4
aa(lp10695
(dp10696
ag4
aa(lp10697
(dp10698
ag4
aa(lp10699
(dp10700
ag4
aa(lp10701
(dp10702
ag4
aa(lp10703
(dp10704
ag4
aa(lp10705
(dp10706
ag4
aa(lp10707
(dp10708
ag4
aa(lp10709
(dp10710
ag4
aa(lp10711
(dp10712
ag4
aa(lp10713
(dp10714
ag4
aa(lp10715
(dp10716
ag4
aa(lp10717
(dp10718
ag4
aa(lp10719
(dp10720
ag4
aa(lp10721
(dp10722
ag4
aa(lp10723
(dp10724
ag4
aa(lp10725
(dp10726
ag4
aa(lp10727
(dp10728
ag4
aa(lp10729
(dp10730
ag4
aa(lp10731
(dp10732
ag4
aa(lp10733
(dp10734
ag4
aa(lp10735
(dp10736
ag4
aa(lp10737
(dp10738
ag4
aa(lp10739
(dp10740
ag4
aa(lp10741
(dp10742
ag4
aa(lp10743
(dp10744
ag4
aa(lp10745
(dp10746
ag4
aa(lp10747
(dp10748
ag4
aa(lp10749
(dp10750
ag4
aa(lp10751
(dp10752
ag4
aa(lp10753
(dp10754
ag4
aa(lp10755
(dp10756
ag4
aa(lp10757
(dp10758
ag4
aa(lp10759
(dp10760
ag4
aa(lp10761
(dp10762
ag4
aa(lp10763
(dp10764
ag4
aa(lp10765
(dp10766
ag4
aa(lp10767
(dp10768
ag4
aa(lp10769
(dp10770
ag4
aa(lp10771
(dp10772
ag4
aa(lp10773
(dp10774
ag4
aa(lp10775
(dp10776
ag4
aa(lp10777
(dp10778
ag4
aa(lp10779
(dp10780
ag4
aa(lp10781
(dp10782
ag4
aa(lp10783
(dp10784
ag4
aa(lp10785
(dp10786
ag4
aa(lp10787
(dp10788
ag4
aa(lp10789
(dp10790
ag4
aa(lp10791
(dp10792
ag4
aa(lp10793
(dp10794
ag4
aa(lp10795
(dp10796
ag4
aa(lp10797
(dp10798
ag4
aa(lp10799
(dp10800
ag4
aa(lp10801
(dp10802
ag4
aa(lp10803
(dp10804
ag4
aa(lp10805
(dp10806
ag4
aa(lp10807
(dp10808
ag4
aa(lp10809
(dp10810
ag4
aa(lp10811
(dp10812
ag4
aa(lp10813
(dp10814
ag4
aa(lp10815
(dp10816
ag4
aa(lp10817
(dp10818
ag4
aa(lp10819
(dp10820
ag4
aa(lp10821
(dp10822
ag4
aa(lp10823
(dp10824
ag4
aa(lp10825
(dp10826
ag4
aa(lp10827
(dp10828
ag4
aa(lp10829
(dp10830
ag4
aa(lp10831
(dp10832
ag4
aa(lp10833
(dp10834
ag4
aa(lp10835
(dp10836
ag4
aa(lp10837
(dp10838
ag4
aa(lp10839
(dp10840
ag4
aa(lp10841
(dp10842
ag4
aa(lp10843
(dp10844
ag4
aa(lp10845
(dp10846
ag4
aa(lp10847
(dp10848
ag4
aa(lp10849
(dp10850
ag4
aa(lp10851
(dp10852
ag4
aa(lp10853
(dp10854
ag4
aa(lp10855
(dp10856
ag4
aa(lp10857
(dp10858
ag4
aa(lp10859
(dp10860
ag4
aa(lp10861
(dp10862
ag4
aa(lp10863
(dp10864
ag4
aa(lp10865
(dp10866
ag4
aa(lp10867
(dp10868
ag4
aa(lp10869
(dp10870
ag4
aa(lp10871
(dp10872
ag4
aa(lp10873
(dp10874
ag4
aa(lp10875
(dp10876
ag4
aa(lp10877
(dp10878
ag4
aa(lp10879
(dp10880
ag4
aa(lp10881
(dp10882
ag4
aa(lp10883
(dp10884
ag4
aa(lp10885
(dp10886
ag4
aa(lp10887
(dp10888
ag4
aa(lp10889
(dp10890
ag4
aa(lp10891
(dp10892
ag4
aa(lp10893
(dp10894
ag4
aa(lp10895
(dp10896
ag4
aa(lp10897
(dp10898
ag4
aa(lp10899
(dp10900
ag4
aa(lp10901
(dp10902
ag4
aa(lp10903
(dp10904
ag4
aa(lp10905
(dp10906
ag4
aa(lp10907
(dp10908
ag4
aa(lp10909
(dp10910
ag4
aa(lp10911
(dp10912
ag4
aa(lp10913
(dp10914
ag4
aa(lp10915
(dp10916
ag4
aa(lp10917
(dp10918
ag4
aa(lp10919
(dp10920
ag4
aa(lp10921
(dp10922
ag4
aa(lp10923
(dp10924
ag4
aa(lp10925
(dp10926
ag4
aa(lp10927
(dp10928
ag4
aa(lp10929
(dp10930
ag4
aa(lp10931
(dp10932
ag4
aa(lp10933
(dp10934
ag4
aa(lp10935
(dp10936
ag4
aa(lp10937
(dp10938
ag4
aa(lp10939
(dp10940
ag4
aa(lp10941
(dp10942
ag4
aa(lp10943
(dp10944
ag4
aa(lp10945
(dp10946
ag4
aa(lp10947
(dp10948
ag4
aa(lp10949
(dp10950
ag4
aa(lp10951
(dp10952
ag4
aa(lp10953
(dp10954
ag4
aa(lp10955
(dp10956
ag4
aa(lp10957
(dp10958
ag4
aa(lp10959
(dp10960
ag4
aa(lp10961
(dp10962
ag4
aa(lp10963
(dp10964
ag4
aa(lp10965
(dp10966
ag4
aa(lp10967
(dp10968
ag4
aa(lp10969
(dp10970
ag4
aa(lp10971
(dp10972
ag4
aa(lp10973
(dp10974
ag4
aa(lp10975
(dp10976
ag4
aa(lp10977
(dp10978
ag4
aa(lp10979
(dp10980
ag4
aa(lp10981
(dp10982
ag4
aa(lp10983
(dp10984
ag4
aa(lp10985
(dp10986
ag4
aa(lp10987
(dp10988
ag4
aa(lp10989
(dp10990
ag4
aa(lp10991
(dp10992
ag4
aa(lp10993
(dp10994
ag4
aa(lp10995
(dp10996
ag4
aa(lp10997
(dp10998
ag4
aa(lp10999
(dp11000
ag4
aa(lp11001
(dp11002
ag4
aa(lp11003
(dp11004
ag4
aa(lp11005
(dp11006
ag4
aa(lp11007
(dp11008
ag4
aa(lp11009
(dp11010
ag4
aa(lp11011
(dp11012
ag4
aa(lp11013
(dp11014
ag4
aa(lp11015
(dp11016
ag4
aa(lp11017
(dp11018
ag4
aa(lp11019
(dp11020
ag4
aa(lp11021
(dp11022
ag4
aa(lp11023
(dp11024
ag4
aa(lp11025
(dp11026
ag4
aa(lp11027
(dp11028
ag4
aa(lp11029
(dp11030
ag4
aa(lp11031
(dp11032
ag4
aa(lp11033
(dp11034
ag4
aa(lp11035
(dp11036
ag4
aa(lp11037
(dp11038
ag4
aa(lp11039
(dp11040
ag4
aa(lp11041
(dp11042
ag4
aa(lp11043
(dp11044
ag4
aa(lp11045
(dp11046
ag4
aa(lp11047
(dp11048
ag4
aa(lp11049
(dp11050
ag4
aa(lp11051
(dp11052
ag4
aa(lp11053
(dp11054
ag4
aa(lp11055
(dp11056
ag4
aa(lp11057
(dp11058
ag4
aa(lp11059
(dp11060
ag4
aa(lp11061
(dp11062
ag4
aa(lp11063
(dp11064
ag4
aa(lp11065
(dp11066
ag4
aa(lp11067
(dp11068
ag4
aa(lp11069
(dp11070
ag4
aa(lp11071
(dp11072
ag4
aa(lp11073
(dp11074
ag4
aa(lp11075
(dp11076
ag4
aa(lp11077
(dp11078
ag4
aa(lp11079
(dp11080
ag4
aa(lp11081
(dp11082
ag4
aa(lp11083
(dp11084
ag4
aa(lp11085
(dp11086
ag4
aa(lp11087
(dp11088
ag4
aa(lp11089
(dp11090
ag4
aa(lp11091
(dp11092
ag4
aa(lp11093
(dp11094
ag4
aa(lp11095
(dp11096
ag4
aa(lp11097
(dp11098
ag4
aa(lp11099
(dp11100
ag4
aa(lp11101
(dp11102
ag4
aa(lp11103
(dp11104
ag4
aa(lp11105
(dp11106
ag4
aa(lp11107
(dp11108
ag4
aa(lp11109
(dp11110
ag4
aa(lp11111
(dp11112
ag4
aa(lp11113
(dp11114
ag4
aa(lp11115
(dp11116
ag4
aa(lp11117
(dp11118
ag4
aa(lp11119
(dp11120
ag4
aa(lp11121
(dp11122
ag4
aa(lp11123
(dp11124
ag4
aa(lp11125
(dp11126
ag4
aa(lp11127
(dp11128
ag4
aa(lp11129
(dp11130
ag4
aa(lp11131
(dp11132
ag4
aa(lp11133
(dp11134
ag4
aa(lp11135
(dp11136
ag4
aa(lp11137
(dp11138
ag4
aa(lp11139
(dp11140
ag4
aa(lp11141
(dp11142
ag4
aa(lp11143
(dp11144
ag4
aa(lp11145
(dp11146
ag4
aa(lp11147
(dp11148
ag4
aa(lp11149
(dp11150
ag4
aa(lp11151
(dp11152
ag4
aa(lp11153
(dp11154
ag4
aa(lp11155
(dp11156
ag4
aa(lp11157
(dp11158
ag4
aa(lp11159
(dp11160
ag4
aa(lp11161
(dp11162
ag4
aa(lp11163
(dp11164
ag4
aa(lp11165
(dp11166
ag4
aa(lp11167
(dp11168
ag4
aa(lp11169
(dp11170
ag4
aa(lp11171
(dp11172
ag4
aa(lp11173
(dp11174
ag4
aa(lp11175
(dp11176
ag4
aa(lp11177
(dp11178
ag4
aa(lp11179
(dp11180
ag4
aa(lp11181
(dp11182
ag4
aa(lp11183
(dp11184
ag4
aa(lp11185
(dp11186
ag4
aa(lp11187
(dp11188
ag4
aa(lp11189
(dp11190
ag4
aa(lp11191
(dp11192
ag4
aa(lp11193
(dp11194
ag4
aa(lp11195
(dp11196
ag4
aa(lp11197
(dp11198
ag4
aa(lp11199
(dp11200
ag4
aa(lp11201
(dp11202
ag4
aa(lp11203
(dp11204
ag4
aa(lp11205
(dp11206
ag4
aa(lp11207
(dp11208
ag4
aa(lp11209
(dp11210
ag4
aa(lp11211
(dp11212
ag4
aa(lp11213
(dp11214
ag4
aa(lp11215
(dp11216
ag4
aa(lp11217
(dp11218
ag4
aa(lp11219
(dp11220
ag4
aa(lp11221
(dp11222
ag4
aa(lp11223
(dp11224
ag4
aa(lp11225
(dp11226
ag4
aa(lp11227
(dp11228
ag4
aa(lp11229
(dp11230
ag4
aa(lp11231
(dp11232
ag4
aa(lp11233
(dp11234
ag4
aa(lp11235
(dp11236
ag4
aa(lp11237
(dp11238
ag4
aa(lp11239
(dp11240
ag4
aa(lp11241
(dp11242
ag4
aa(lp11243
(dp11244
ag4
aa(lp11245
(dp11246
ag4
aa(lp11247
(dp11248
ag4
aa(lp11249
(dp11250
ag4
aa(lp11251
(dp11252
ag4
aa(lp11253
(dp11254
ag4
aa(lp11255
(dp11256
ag4
aa(lp11257
(dp11258
ag4
aa(lp11259
(dp11260
ag4
aa(lp11261
(dp11262
ag4
aa(lp11263
(dp11264
ag4
aa(lp11265
(dp11266
ag4
aa(lp11267
(dp11268
ag4
aa(lp11269
(dp11270
ag4
aa(lp11271
(dp11272
ag4
aa(lp11273
(dp11274
ag4
aa(lp11275
(dp11276
ag4
aa(lp11277
(dp11278
ag4
aa(lp11279
(dp11280
ag4
aa(lp11281
(dp11282
ag4
aa(lp11283
(dp11284
ag4
aa(lp11285
(dp11286
ag4
aa(lp11287
(dp11288
ag4
aa(lp11289
(dp11290
ag4
aa(lp11291
(dp11292
ag4
aa(lp11293
(dp11294
ag4
aa(lp11295
(dp11296
ag4
aa(lp11297
(dp11298
ag4
aa(lp11299
(dp11300
ag4
aa(lp11301
(dp11302
ag4
aa(lp11303
(dp11304
ag4
aa(lp11305
(dp11306
ag4
aa(lp11307
(dp11308
ag4
aa(lp11309
(dp11310
ag4
aa(lp11311
(dp11312
ag4
aa(lp11313
(dp11314
ag4
aa(lp11315
(dp11316
ag4
aa(lp11317
(dp11318
ag4
aa(lp11319
(dp11320
ag4
aa(lp11321
(dp11322
ag4
aa(lp11323
(dp11324
ag4
aa(lp11325
(dp11326
ag4
aa(lp11327
(dp11328
ag4
aa(lp11329
(dp11330
ag4
aa(lp11331
(dp11332
ag4
aa(lp11333
(dp11334
ag4
aa(lp11335
(dp11336
ag4
aa(lp11337
(dp11338
ag4
aa(lp11339
(dp11340
ag4
aa(lp11341
(dp11342
ag4
aa(lp11343
(dp11344
ag4
aa(lp11345
(dp11346
ag4
aa(lp11347
(dp11348
ag4
aa(lp11349
(dp11350
ag4
aa(lp11351
(dp11352
ag4
aa(lp11353
(dp11354
ag4
aa(lp11355
(dp11356
ag4
aa(lp11357
(dp11358
ag4
aa(lp11359
(dp11360
ag4
aa(lp11361
(dp11362
ag4
aa(lp11363
(dp11364
ag4
aa(lp11365
(dp11366
ag4
aa(lp11367
(dp11368
ag4
aa(lp11369
(dp11370
ag4
aa(lp11371
(dp11372
ag4
aa(lp11373
(dp11374
ag4
aa(lp11375
(dp11376
ag4
aa(lp11377
(dp11378
ag4
aa(lp11379
(dp11380
ag4
aa(lp11381
(dp11382
ag4
aa(lp11383
(dp11384
ag4
aa(lp11385
(dp11386
ag4
aa(lp11387
(dp11388
ag4
aa(lp11389
(dp11390
ag4
aa(lp11391
(dp11392
ag4
aa(lp11393
(dp11394
ag4
aa(lp11395
(dp11396
ag4
aa(lp11397
(dp11398
ag4
aa(lp11399
(dp11400
ag4
aa(lp11401
(dp11402
ag4
aa(lp11403
(dp11404
ag4
aa(lp11405
(dp11406
ag4
aa(lp11407
(dp11408
ag4
aa(lp11409
(dp11410
ag4
aa(lp11411
(dp11412
ag4
aa(lp11413
(dp11414
ag4
aa(lp11415
(dp11416
ag4
aa(lp11417
(dp11418
ag4
aa(lp11419
(dp11420
ag4
aa(lp11421
(dp11422
ag4
aa(lp11423
(dp11424
ag4
aa(lp11425
(dp11426
ag4
aa(lp11427
(dp11428
ag4
aa(lp11429
(dp11430
ag4
aa(lp11431
(dp11432
ag4
aa(lp11433
(dp11434
ag4
aa(lp11435
(dp11436
ag4
aa(lp11437
(dp11438
ag4
aa(lp11439
(dp11440
ag4
aa(lp11441
(dp11442
ag4
aa(lp11443
(dp11444
ag4
aa(lp11445
(dp11446
ag4
aa(lp11447
(dp11448
ag4
aa(lp11449
(dp11450
ag4
aa(lp11451
(dp11452
ag4
aa(lp11453
(dp11454
ag4
aa(lp11455
(dp11456
ag4
aa(lp11457
(dp11458
ag4
aa(lp11459
(dp11460
ag4
aa(lp11461
(dp11462
ag4
aa(lp11463
(dp11464
ag4
aa(lp11465
(dp11466
ag4
aa(lp11467
(dp11468
ag4
aa(lp11469
(dp11470
ag4
aa(lp11471
(dp11472
ag4
aa(lp11473
(dp11474
ag4
aa(lp11475
(dp11476
ag4
aa(lp11477
(dp11478
ag4
aa(lp11479
(dp11480
ag4
aa(lp11481
(dp11482
ag4
aa(lp11483
(dp11484
ag4
aa(lp11485
(dp11486
ag4
aa(lp11487
(dp11488
ag4
aa(lp11489
(dp11490
ag4
aa(lp11491
(dp11492
ag4
aa(lp11493
(dp11494
ag4
aa(lp11495
(dp11496
ag4
aa(lp11497
(dp11498
ag4
aa(lp11499
(dp11500
ag4
aa(lp11501
(dp11502
ag4
aa(lp11503
(dp11504
ag4
aa(lp11505
(dp11506
ag4
aa(lp11507
(dp11508
ag4
aa(lp11509
(dp11510
ag4
aa(lp11511
(dp11512
ag4
aa(lp11513
(dp11514
ag4
aa(lp11515
(dp11516
ag4
aa(lp11517
(dp11518
ag4
aa(lp11519
(dp11520
ag4
aa(lp11521
(dp11522
ag4
aa(lp11523
(dp11524
ag4
aa(lp11525
(dp11526
ag4
aa(lp11527
(dp11528
ag4
aa(lp11529
(dp11530
ag4
aa(lp11531
(dp11532
ag4
aa(lp11533
(dp11534
ag4
aa(lp11535
(dp11536
ag4
aa(lp11537
(dp11538
ag4
aa(lp11539
(dp11540
ag4
aa(lp11541
(dp11542
ag4
aa(lp11543
(dp11544
ag4
aa(lp11545
(dp11546
ag4
aa(lp11547
(dp11548
ag4
aa(lp11549
(dp11550
ag4
aa(lp11551
(dp11552
ag4
aa(lp11553
(dp11554
ag4
aa(lp11555
(dp11556
ag4
aa(lp11557
(dp11558
ag4
aa(lp11559
(dp11560
ag4
aa(lp11561
(dp11562
ag4
aa(lp11563
(dp11564
ag4
aa(lp11565
(dp11566
ag4
aa(lp11567
(dp11568
ag4
aa(lp11569
(dp11570
ag4
aa(lp11571
(dp11572
ag4
aa(lp11573
(dp11574
ag4
aa(lp11575
(dp11576
ag4
aa(lp11577
(dp11578
ag4
aa(lp11579
(dp11580
ag4
aa(lp11581
(dp11582
ag4
aa(lp11583
(dp11584
ag4
aa(lp11585
(dp11586
ag4
aa(lp11587
(dp11588
ag4
aa(lp11589
(dp11590
ag4
aa(lp11591
(dp11592
ag4
aa(lp11593
(dp11594
ag4
aa(lp11595
(dp11596
ag4
aa(lp11597
(dp11598
ag4
aa(lp11599
(dp11600
ag4
aa(lp11601
(dp11602
ag4
aa(lp11603
(dp11604
ag4
aa(lp11605
(dp11606
ag4
aa(lp11607
(dp11608
ag4
aa(lp11609
(dp11610
ag4
aa(lp11611
(dp11612
ag4
aa(lp11613
(dp11614
ag4
aa(lp11615
(dp11616
ag4
aa(lp11617
(dp11618
ag4
aa(lp11619
(dp11620
ag4
aa(lp11621
(dp11622
ag4
aa(lp11623
(dp11624
ag4
aa(lp11625
(dp11626
ag4
aa(lp11627
(dp11628
ag4
aa(lp11629
(dp11630
ag4
aa(lp11631
(dp11632
ag4
aa(lp11633
(dp11634
ag4
aa(lp11635
(dp11636
ag4
aa(lp11637
(dp11638
ag4
aa(lp11639
(dp11640
ag4
aa(lp11641
(dp11642
ag4
aa(lp11643
(dp11644
ag4
aa(lp11645
(dp11646
ag4
aa(lp11647
(dp11648
ag4
aa(lp11649
(dp11650
ag4
aa(lp11651
(dp11652
ag4
aa(lp11653
(dp11654
ag4
aa(lp11655
(dp11656
ag4
aa(lp11657
(dp11658
ag4
aa(lp11659
(dp11660
ag4
aa(lp11661
(dp11662
ag4
aa(lp11663
(dp11664
ag4
aa(lp11665
(dp11666
ag4
aa(lp11667
(dp11668
ag4
aa(lp11669
(dp11670
ag4
aa(lp11671
(dp11672
ag4
aa(lp11673
(dp11674
ag4
aa(lp11675
(dp11676
ag4
aa(lp11677
(dp11678
ag4
aa(lp11679
(dp11680
ag4
aa(lp11681
(dp11682
ag4
aa(lp11683
(dp11684
ag4
aa(lp11685
(dp11686
ag4
aa(lp11687
(dp11688
ag4
aa(lp11689
(dp11690
ag4
aa(lp11691
(dp11692
ag4
aa(lp11693
(dp11694
ag4
aa(lp11695
(dp11696
ag4
aa(lp11697
(dp11698
ag4
aa(lp11699
(dp11700
ag4
aa(lp11701
(dp11702
ag4
aa(lp11703
(dp11704
ag4
aa(lp11705
(dp11706
ag4
aa(lp11707
(dp11708
ag4
aa(lp11709
(dp11710
ag4
aa(lp11711
(dp11712
ag4
aa(lp11713
(dp11714
ag4
aa(lp11715
(dp11716
ag4
aa(lp11717
(dp11718
ag4
aa(lp11719
(dp11720
ag4
aa(lp11721
(dp11722
ag4
aa(lp11723
(dp11724
ag4
aa(lp11725
(dp11726
ag4
aa(lp11727
(dp11728
ag4
aa(lp11729
(dp11730
ag4
aa(lp11731
(dp11732
ag4
aa(lp11733
(dp11734
ag4
aa(lp11735
(dp11736
ag4
aa(lp11737
(dp11738
ag4
aa(lp11739
(dp11740
ag4
aa(lp11741
(dp11742
ag4
aa(lp11743
(dp11744
ag4
aa(lp11745
(dp11746
ag4
aa(lp11747
(dp11748
ag4
aa(lp11749
(dp11750
ag4
aa(lp11751
(dp11752
ag4
aa(lp11753
(dp11754
ag4
aa(lp11755
(dp11756
ag4
aa(lp11757
(dp11758
ag4
aa(lp11759
(dp11760
ag4
aa(lp11761
(dp11762
ag4
aa(lp11763
(dp11764
ag4
aa(lp11765
(dp11766
ag4
aa(lp11767
(dp11768
ag4
aa(lp11769
(dp11770
ag4
aa(lp11771
(dp11772
ag4
aa(lp11773
(dp11774
ag4
aa(lp11775
(dp11776
ag4
aa(lp11777
(dp11778
ag4
aa(lp11779
(dp11780
ag4
aa(lp11781
(dp11782
ag4
aa(lp11783
(dp11784
ag4
aa(lp11785
(dp11786
ag4
aa(lp11787
(dp11788
ag4
aa(lp11789
(dp11790
ag4
aa(lp11791
(dp11792
ag4
aa(lp11793
(dp11794
ag4
aa(lp11795
(dp11796
ag4
aa(lp11797
(dp11798
ag4
aa(lp11799
(dp11800
ag4
aa(lp11801
(dp11802
ag4
aa(lp11803
(dp11804
ag4
aa(lp11805
(dp11806
ag4
aa(lp11807
(dp11808
ag4
aa(lp11809
(dp11810
ag4
aa(lp11811
(dp11812
ag4
aa(lp11813
(dp11814
ag4
aa(lp11815
(dp11816
ag4
aa(lp11817
(dp11818
ag4
aa(lp11819
(dp11820
ag4
aa(lp11821
(dp11822
ag4
aa(lp11823
(dp11824
ag4
aa(lp11825
(dp11826
ag4
aa(lp11827
(dp11828
ag4
aa(lp11829
(dp11830
ag4
aa(lp11831
(dp11832
ag4
aa(lp11833
(dp11834
ag4
aa(lp11835
(dp11836
ag4
aa(lp11837
(dp11838
ag4
aa(lp11839
(dp11840
ag4
aa(lp11841
(dp11842
ag4
aa(lp11843
(dp11844
ag4
aa(lp11845
(dp11846
ag4
aa(lp11847
(dp11848
ag4
aa(lp11849
(dp11850
ag4
aa(lp11851
(dp11852
ag4
aa(lp11853
(dp11854
ag4
aa(lp11855
(dp11856
ag4
aa(lp11857
(dp11858
ag4
aa(lp11859
(dp11860
ag4
aa(lp11861
(dp11862
ag4
aa(lp11863
(dp11864
ag4
aa(lp11865
(dp11866
ag4
aa(lp11867
(dp11868
ag4
aa(lp11869
(dp11870
ag4
aa(lp11871
(dp11872
ag4
aa(lp11873
(dp11874
ag4
aa(lp11875
(dp11876
ag4
aa(lp11877
(dp11878
ag4
aa(lp11879
(dp11880
ag4
aa(lp11881
(dp11882
ag4
aa(lp11883
(dp11884
ag4
aa(lp11885
(dp11886
ag4
aa(lp11887
(dp11888
ag4
aa(lp11889
(dp11890
ag4
aa(lp11891
(dp11892
ag4
aa(lp11893
(dp11894
ag4
aa(lp11895
(dp11896
ag4
aa(lp11897
(dp11898
ag4
aa(lp11899
(dp11900
ag4
aa(lp11901
(dp11902
ag4
aa(lp11903
(dp11904
ag4
aa(lp11905
(dp11906
ag4
aa(lp11907
(dp11908
ag4
aa(lp11909
(dp11910
ag4
aa(lp11911
(dp11912
ag4
aa(lp11913
(dp11914
ag4
aa(lp11915
(dp11916
ag4
aa(lp11917
(dp11918
ag4
aa(lp11919
(dp11920
ag4
aa(lp11921
(dp11922
ag4
aa(lp11923
(dp11924
ag4
aa(lp11925
(dp11926
ag4
aa(lp11927
(dp11928
ag4
aa(lp11929
(dp11930
ag4
aa(lp11931
(dp11932
ag4
aa(lp11933
(dp11934
ag4
aa(lp11935
(dp11936
ag4
aa(lp11937
(dp11938
ag4
aa(lp11939
(dp11940
ag4
aa(lp11941
(dp11942
ag4
aa(lp11943
(dp11944
ag4
aa(lp11945
(dp11946
ag4
aa(lp11947
(dp11948
ag4
aa(lp11949
(dp11950
ag4
aa(lp11951
(dp11952
ag4
aa(lp11953
(dp11954
ag4
aa(lp11955
(dp11956
ag4
aa(lp11957
(dp11958
ag4
aa(lp11959
(dp11960
ag4
aa(lp11961
(dp11962
ag4
aa(lp11963
(dp11964
ag4
aa(lp11965
(dp11966
ag4
aa(lp11967
(dp11968
ag4
aa(lp11969
(dp11970
ag4
aa(lp11971
(dp11972
ag4
aa(lp11973
(dp11974
ag4
aa(lp11975
(dp11976
ag4
aa(lp11977
(dp11978
ag4
aa(lp11979
(dp11980
ag4
aa(lp11981
(dp11982
ag4
aa(lp11983
(dp11984
ag4
aa(lp11985
(dp11986
ag4
aa(lp11987
(dp11988
ag4
aa(lp11989
(dp11990
ag4
aa(lp11991
(dp11992
ag4
aa(lp11993
(dp11994
ag4
aa(lp11995
(dp11996
ag4
aa(lp11997
(dp11998
ag4
aa(lp11999
(dp12000
ag4
aa(lp12001
(dp12002
ag4
aa(lp12003
(dp12004
ag4
aa(lp12005
(dp12006
ag4
aa(lp12007
(dp12008
ag4
aa(lp12009
(dp12010
ag4
aa(lp12011
(dp12012
ag4
aa(lp12013
(dp12014
ag4
aa(lp12015
(dp12016
ag4
aa(lp12017
(dp12018
ag4
aa(lp12019
(dp12020
ag4
aa(lp12021
(dp12022
ag4
aa(lp12023
(dp12024
ag4
aa(lp12025
(dp12026
ag4
aa(lp12027
(dp12028
ag4
aa(lp12029
(dp12030
ag4
aa(lp12031
(dp12032
ag4
aa(lp12033
(dp12034
ag4
aa(lp12035
(dp12036
ag4
aa(lp12037
(dp12038
ag4
aa(lp12039
(dp12040
ag4
aa(lp12041
(dp12042
ag4
aa(lp12043
(dp12044
ag4
aa(lp12045
(dp12046
ag4
aa(lp12047
(dp12048
ag4
aa(lp12049
(dp12050
ag4
aa(lp12051
(dp12052
ag4
aa(lp12053
(dp12054
ag4
aa(lp12055
(dp12056
ag4
aa(lp12057
(dp12058
ag4
aa(lp12059
(dp12060
ag4
aa(lp12061
(dp12062
ag4
aa(lp12063
(dp12064
ag4
aa(lp12065
(dp12066
ag4
aa(lp12067
(dp12068
ag4
aa(lp12069
(dp12070
ag4
aa(lp12071
(dp12072
ag4
aa(lp12073
(dp12074
ag4
aa(lp12075
(dp12076
ag4
aa(lp12077
(dp12078
ag4
aa(lp12079
(dp12080
ag4
aa(lp12081
(dp12082
ag4
aa(lp12083
(dp12084
ag4
aa(lp12085
(dp12086
ag4
aa(lp12087
(dp12088
ag4
aa(lp12089
(dp12090
ag4
aa(lp12091
(dp12092
ag4
aa(lp12093
(dp12094
ag4
aa(lp12095
(dp12096
ag4
aa(lp12097
(dp12098
ag4
aa(lp12099
(dp12100
ag4
aa(lp12101
(dp12102
ag4
aa(lp12103
(dp12104
ag4
aa(lp12105
(dp12106
ag4
aa(lp12107
(dp12108
ag4
aa(lp12109
(dp12110
ag4
aa(lp12111
(dp12112
ag4
aa(lp12113
(dp12114
ag4
aa.